---
triple:          'x86_64-apple-darwin'
binary-path:     '/Users/saurin/Documents/Coding Projects/Othello/main'
relocations:
  - { offsetInCU: 0x57, offset: 0x57, size: 0x8, addend: 0x0, symName: _board, symObjAddr: 0x49820, symBinAddr: 0x10000A000, symSize: 0x0 }
  - { offsetInCU: 0x5163, offset: 0x5163, size: 0x8, addend: 0x0, symName: __ZNSt3__124__put_character_sequenceB8ue170006IcNS_11char_traitsIcEEEERNS_13basic_ostreamIT_T0_EES7_PKS4_m, symObjAddr: 0x3E50, symBinAddr: 0x100004B70, symSize: 0x1F0 }
  - { offsetInCU: 0x7F8E, offset: 0x7F8E, size: 0x8, addend: 0x0, symName: __ZNSt3__17advanceB8ue170006IPNS_6vectorIcNS_9allocatorIcEEEEllvEEvRT_T0_, symObjAddr: 0x7030, symBinAddr: 0x100007D50, symSize: 0x30 }
  - { offsetInCU: 0x7FF9, offset: 0x7FF9, size: 0x8, addend: 0x0, symName: __ZNSt3__17advanceB8ue170006IPcllvEEvRT_T0_, symObjAddr: 0x7670, symBinAddr: 0x100008390, symSize: 0x30 }
  - { offsetInCU: 0x8D8D, offset: 0x8D8D, size: 0x8, addend: 0x0, symName: __ZNSt3__1lsB8ue170006INS_11char_traitsIcEEEERNS_13basic_ostreamIcT_EES6_PKc, symObjAddr: 0x290, symBinAddr: 0x100000FB0, symSize: 0x40 }
  - { offsetInCU: 0x8DD3, offset: 0x8DD3, size: 0x8, addend: 0x0, symName: __ZNSt3__14endlB8ue170006IcNS_11char_traitsIcEEEERNS_13basic_ostreamIT_T0_EES7_, symObjAddr: 0x2F0, symBinAddr: 0x100001010, symSize: 0x50 }
  - { offsetInCU: 0x8E13, offset: 0x8E13, size: 0x8, addend: 0x0, symName: __ZNSt3__1lsB8ue170006INS_11char_traitsIcEEEERNS_13basic_ostreamIcT_EES6_c, symObjAddr: 0x340, symBinAddr: 0x100001060, symSize: 0x30 }
  - { offsetInCU: 0x8E59, offset: 0x8E59, size: 0x8, addend: 0x0, symName: __ZNSt3__19make_pairB8ue170006IRiS1_EENS_4pairINS_18__unwrap_ref_decayIT_E4typeENS3_IT0_E4typeEEEOS4_OS7_, symObjAddr: 0x460, symBinAddr: 0x100001180, symSize: 0x30 }
  - { offsetInCU: 0x8EA8, offset: 0x8EA8, size: 0x8, addend: 0x0, symName: __ZNSt3__13maxB8ue170006IiEERKT_S3_S3_, symObjAddr: 0x14E0, symBinAddr: 0x100002200, symSize: 0x30 }
  - { offsetInCU: 0x8EEB, offset: 0x8EEB, size: 0x8, addend: 0x0, symName: __ZNSt3__13maxB8ue170006IiNS_6__lessIvvEEEERKT_S5_S5_T0_, symObjAddr: 0x1A80, symBinAddr: 0x1000027A0, symSize: 0x50 }
  - { offsetInCU: 0x8FBB, offset: 0x8FBB, size: 0x8, addend: 0x0, symName: __ZNSt3__122__make_exception_guardB8ue170006INS_6vectorIcNS_9allocatorIcEEE16__destroy_vectorEEENS_28__exception_guard_exceptionsIT_EES7_, symObjAddr: 0x1C30, symBinAddr: 0x100002950, symSize: 0x40 }
  - { offsetInCU: 0x8FF0, offset: 0x8FF0, size: 0x8, addend: 0x0, symName: __ZNSt3__119__allocate_at_leastB8ue170006INS_9allocatorIcEEEENS_19__allocation_resultINS_16allocator_traitsIT_E7pointerEEERS5_m, symObjAddr: 0x1FE0, symBinAddr: 0x100002D00, symSize: 0x40 }
  - { offsetInCU: 0x9033, offset: 0x9033, size: 0x8, addend: 0x0, symName: __ZNSt3__13minB8ue170006ImEERKT_S3_S3_, symObjAddr: 0x2100, symBinAddr: 0x100002E20, symSize: 0x30 }
  - { offsetInCU: 0x9277, offset: 0x9277, size: 0x8, addend: 0x0, symName: __ZNSt3__13minB8ue170006ImNS_6__lessIvvEEEERKT_S5_S5_T0_, symObjAddr: 0x2190, symBinAddr: 0x100002EB0, symSize: 0x50 }
  - { offsetInCU: 0x92D1, offset: 0x92D1, size: 0x8, addend: 0x0, symName: __ZNSt3__120__throw_length_errorB8ue170006EPKc, symObjAddr: 0x2270, symBinAddr: 0x100002F90, symSize: 0x70 }
  - { offsetInCU: 0x92FB, offset: 0x92FB, size: 0x8, addend: 0x0, symName: __ZNSt3__117__libcpp_allocateB8ue170006Emm, symObjAddr: 0x23E0, symBinAddr: 0x100003100, symSize: 0x20 }
  - { offsetInCU: 0x9338, offset: 0x9338, size: 0x8, addend: 0x0, symName: __ZNSt3__121__libcpp_operator_newB8ue170006IJmEEEPvDpT_, symObjAddr: 0x2400, symBinAddr: 0x100003120, symSize: 0x20 }
  - { offsetInCU: 0x9371, offset: 0x9371, size: 0x8, addend: 0x0, symName: __ZNSt3__112__to_addressB8ue170006IcEEPT_S2_, symObjAddr: 0x24F0, symBinAddr: 0x100003210, symSize: 0x10 }
  - { offsetInCU: 0x93A6, offset: 0x93A6, size: 0x8, addend: 0x0, symName: __ZNSt3__119__libcpp_deallocateB8ue170006EPvmm, symObjAddr: 0x2920, symBinAddr: 0x100003640, symSize: 0x30 }
  - { offsetInCU: 0x93EE, offset: 0x93EE, size: 0x8, addend: 0x0, symName: __ZNSt3__127__do_deallocate_handle_sizeB8ue170006IJEEEvPvmDpT_, symObjAddr: 0x2950, symBinAddr: 0x100003670, symSize: 0x20 }
  - { offsetInCU: 0x942C, offset: 0x942C, size: 0x8, addend: 0x0, symName: __ZNSt3__124__libcpp_operator_deleteB8ue170006IJPvEEEvDpT_, symObjAddr: 0x2970, symBinAddr: 0x100003690, symSize: 0x20 }
  - { offsetInCU: 0x9461, offset: 0x9461, size: 0x8, addend: 0x0, symName: __ZNSt3__122__make_exception_guardB8ue170006INS_6vectorINS1_IcNS_9allocatorIcEEEENS2_IS4_EEE16__destroy_vectorEEENS_28__exception_guard_exceptionsIT_EES9_, symObjAddr: 0x2AE0, symBinAddr: 0x100003800, symSize: 0x40 }
  - { offsetInCU: 0x9496, offset: 0x9496, size: 0x8, addend: 0x0, symName: __ZNSt3__119__allocate_at_leastB8ue170006INS_9allocatorINS_6vectorIcNS1_IcEEEEEEEENS_19__allocation_resultINS_16allocator_traitsIT_E7pointerEEERS8_m, symObjAddr: 0x2E90, symBinAddr: 0x100003BB0, symSize: 0x40 }
  - { offsetInCU: 0x94D9, offset: 0x94D9, size: 0x8, addend: 0x0, symName: __ZNSt3__112__to_addressB8ue170006INS_6vectorIcNS_9allocatorIcEEEEEEPT_S6_, symObjAddr: 0x3170, symBinAddr: 0x100003E90, symSize: 0x10 }
  - { offsetInCU: 0x950E, offset: 0x950E, size: 0x8, addend: 0x0, symName: __ZNSt3__130__uninitialized_allocator_copyB8ue170006INS_9allocatorIcEEPcS3_S3_EET2_RT_T0_T1_S4_, symObjAddr: 0x3560, symBinAddr: 0x100004280, symSize: 0x80 }
  - { offsetInCU: 0x95AB, offset: 0x95AB, size: 0x8, addend: 0x0, symName: __ZNSt3__114__unwrap_rangeB8ue170006IPcS1_EENS_4pairIT0_S3_EET_S5_, symObjAddr: 0x35E0, symBinAddr: 0x100004300, symSize: 0x50 }
  - { offsetInCU: 0x95F7, offset: 0x95F7, size: 0x8, addend: 0x0, symName: __ZNSt3__135__uninitialized_allocator_copy_implB8ue170006INS_9allocatorIcEEcccLPv0EEEPT2_RT_PT0_S9_S5_, symObjAddr: 0x3630, symBinAddr: 0x100004350, symSize: 0x30 }
  - { offsetInCU: 0x9678, offset: 0x9678, size: 0x8, addend: 0x0, symName: __ZNSt3__113__unwrap_iterB8ue170006IPcNS_18__unwrap_iter_implIS1_Lb1EEELi0EEEDTclsrT0_8__unwrapclsr3stdE7declvalIT_EEEES5_, symObjAddr: 0x3660, symBinAddr: 0x100004380, symSize: 0x20 }
  - { offsetInCU: 0x96BC, offset: 0x96BC, size: 0x8, addend: 0x0, symName: __ZNSt3__113__rewrap_iterB8ue170006IPcS1_NS_18__unwrap_iter_implIS1_Lb1EEEEET_S4_T0_, symObjAddr: 0x3680, symBinAddr: 0x1000043A0, symSize: 0x40 }
  - { offsetInCU: 0x9711, offset: 0x9711, size: 0x8, addend: 0x0, symName: __ZNSt3__19make_pairB8ue170006IPcS1_EENS_4pairINS_18__unwrap_ref_decayIT_E4typeENS3_IT0_E4typeEEEOS4_OS7_, symObjAddr: 0x36C0, symBinAddr: 0x1000043E0, symSize: 0x30 }
  - { offsetInCU: 0x9863, offset: 0x9863, size: 0x8, addend: 0x0, symName: __ZNSt3__14copyB8ue170006IPcS1_EET0_T_S3_S2_, symObjAddr: 0x3750, symBinAddr: 0x100004470, symSize: 0x40 }
  - { offsetInCU: 0x98BD, offset: 0x98BD, size: 0x8, addend: 0x0, symName: __ZNSt3__16__copyB8ue170006INS_17_ClassicAlgPolicyEPcS2_S2_EENS_4pairIT0_T2_EES4_T1_S5_, symObjAddr: 0x3790, symBinAddr: 0x1000044B0, symSize: 0x40 }
  - { offsetInCU: 0x9929, offset: 0x9929, size: 0x8, addend: 0x0, symName: __ZNSt3__123__dispatch_copy_or_moveB8ue170006INS_17_ClassicAlgPolicyENS_11__copy_loopIS1_EENS_14__copy_trivialEPcS5_S5_EENS_4pairIT2_T4_EES7_T3_S8_, symObjAddr: 0x37D0, symBinAddr: 0x1000044F0, symSize: 0x40 }
  - { offsetInCU: 0x99A7, offset: 0x99A7, size: 0x8, addend: 0x0, symName: __ZNSt3__121__unwrap_and_dispatchB8ue170006INS_10__overloadINS_11__copy_loopINS_17_ClassicAlgPolicyEEENS_14__copy_trivialEEEPcS7_S7_Li0EEENS_4pairIT0_T2_EES9_T1_SA_, symObjAddr: 0x3810, symBinAddr: 0x100004530, symSize: 0xB0 }
  - { offsetInCU: 0x9A7C, offset: 0x9A7C, size: 0x8, addend: 0x0, symName: __ZNSt3__114__rewrap_rangeB8ue170006IPcS1_EET_S2_T0_, symObjAddr: 0x3900, symBinAddr: 0x100004620, symSize: 0x30 }
  - { offsetInCU: 0x9AC8, offset: 0x9AC8, size: 0x8, addend: 0x0, symName: __ZNSt3__119__copy_trivial_implB8ue170006IccEENS_4pairIPT_PT0_EES3_S3_S5_, symObjAddr: 0x3930, symBinAddr: 0x100004650, symSize: 0x70 }
  - { offsetInCU: 0x9B30, offset: 0x9B30, size: 0x8, addend: 0x0, symName: __ZNSt3__119__constexpr_memmoveB8ue170006IccLi0EEEPT_S2_PT0_NS_15__element_countE, symObjAddr: 0x39A0, symBinAddr: 0x1000046C0, symSize: 0x50 }
  - { offsetInCU: 0x9B9E, offset: 0x9B9E, size: 0x8, addend: 0x0, symName: __ZNSt3__19make_pairB8ue170006IRPcS1_EENS_4pairINS_18__unwrap_ref_decayIT_E4typeENS4_IT0_E4typeEEEOS5_OS8_, symObjAddr: 0x39F0, symBinAddr: 0x100004710, symSize: 0x30 }
  - { offsetInCU: 0x9C40, offset: 0x9C40, size: 0x8, addend: 0x0, symName: __ZNSt3__116__pad_and_outputB8ue170006IcNS_11char_traitsIcEEEENS_19ostreambuf_iteratorIT_T0_EES6_PKS4_S8_S8_RNS_8ios_baseES4_, symObjAddr: 0x4090, symBinAddr: 0x100004DB0, symSize: 0x220 }
  - { offsetInCU: 0x9D10, offset: 0x9D10, size: 0x8, addend: 0x0, symName: __ZNSt3__112__to_addressB8ue170006IKcEEPT_S3_, symObjAddr: 0x4560, symBinAddr: 0x100005280, symSize: 0x10 }
  - { offsetInCU: 0x9D78, offset: 0x9D78, size: 0x8, addend: 0x0, symName: __ZNSt3__19use_facetB8ue170006INS_5ctypeIcEEEERKT_RKNS_6localeE, symObjAddr: 0x47C0, symBinAddr: 0x1000054E0, symSize: 0x30 }
  - { offsetInCU: 0xA245, offset: 0xA245, size: 0x8, addend: 0x0, symName: __ZNSt3__118__constexpr_strlenB8ue170006EPKc, symObjAddr: 0x4850, symBinAddr: 0x100005570, symSize: 0x20 }
  - { offsetInCU: 0xA271, offset: 0xA271, size: 0x8, addend: 0x0, symName: __ZNSt3__112__to_addressB8ue170006INS_4pairIiiEEEEPT_S4_, symObjAddr: 0x4CB0, symBinAddr: 0x1000059D0, symSize: 0x10 }
  - { offsetInCU: 0xA2A6, offset: 0xA2A6, size: 0x8, addend: 0x0, symName: __ZNSt3__13maxB8ue170006ImEERKT_S3_S3_, symObjAddr: 0x5320, symBinAddr: 0x100006040, symSize: 0x30 }
  - { offsetInCU: 0xA2E9, offset: 0xA2E9, size: 0x8, addend: 0x0, symName: __ZNSt3__13maxB8ue170006ImNS_6__lessIvvEEEERKT_S5_S5_T0_, symObjAddr: 0x53E0, symBinAddr: 0x100006100, symSize: 0x50 }
  - { offsetInCU: 0xA343, offset: 0xA343, size: 0x8, addend: 0x0, symName: __ZNSt3__119__allocate_at_leastB8ue170006INS_9allocatorINS_4pairIiiEEEEEENS_19__allocation_resultINS_16allocator_traitsIT_E7pointerEEERS7_m, symObjAddr: 0x5530, symBinAddr: 0x100006250, symSize: 0x40 }
  - { offsetInCU: 0xA386, offset: 0xA386, size: 0x8, addend: 0x0, symName: __ZNSt3__142__uninitialized_allocator_move_if_noexceptB8ue170006INS_9allocatorINS_4pairIiiEEEENS_16reverse_iteratorIPS3_EES7_S7_EET2_RT_T0_T1_S8_, symObjAddr: 0x56C0, symBinAddr: 0x1000063E0, symSize: 0x180 }
  - { offsetInCU: 0xA425, offset: 0xA425, size: 0x8, addend: 0x0, symName: __ZNSt3__14swapB8ue170006IPNS_4pairIiiEEEENS_9enable_ifIXaasr21is_move_constructibleIT_EE5valuesr18is_move_assignableIS5_EE5valueEvE4typeERS5_S8_, symObjAddr: 0x5890, symBinAddr: 0x1000065B0, symSize: 0x40 }
  - { offsetInCU: 0xA476, offset: 0xA476, size: 0x8, addend: 0x0, symName: __ZNSt3__122__make_exception_guardB8ue170006INS_29_AllocatorDestroyRangeReverseINS_9allocatorINS_4pairIiiEEEENS_16reverse_iteratorIPS4_EEEEEENS_28__exception_guard_exceptionsIT_EESB_, symObjAddr: 0x5980, symBinAddr: 0x1000066A0, symSize: 0x60 }
  - { offsetInCU: 0xA4AB, offset: 0xA4AB, size: 0x8, addend: 0x0, symName: __ZNSt3__1neB8ue170006IPNS_4pairIiiEES3_EEbRKNS_16reverse_iteratorIT_EERKNS4_IT0_EE, symObjAddr: 0x5A20, symBinAddr: 0x100006740, symSize: 0x40 }
  - { offsetInCU: 0xA4F7, offset: 0xA4F7, size: 0x8, addend: 0x0, symName: __ZNSt3__112__to_addressB8ue170006INS_16reverse_iteratorIPNS_4pairIiiEEEEvEEu7__decayIDTclsr19__to_address_helperIT_EE6__callclsr3stdE7declvalIRKS6_EEEEES8_, symObjAddr: 0x5A60, symBinAddr: 0x100006780, symSize: 0x20 }
  - { offsetInCU: 0xA556, offset: 0xA556, size: 0x8, addend: 0x0, symName: __ZNSt3__119__allocator_destroyB8ue170006INS_9allocatorINS_4pairIiiEEEENS_16reverse_iteratorINS5_IPS3_EEEES8_EEvRT_T0_T1_, symObjAddr: 0x5D50, symBinAddr: 0x100006A70, symSize: 0x70 }
  - { offsetInCU: 0xA5B9, offset: 0xA5B9, size: 0x8, addend: 0x0, symName: __ZNSt3__1neB8ue170006INS_16reverse_iteratorIPNS_4pairIiiEEEES5_EEbRKNS1_IT_EERKNS1_IT0_EE, symObjAddr: 0x5DF0, symBinAddr: 0x100006B10, symSize: 0x50 }
  - { offsetInCU: 0xA605, offset: 0xA605, size: 0x8, addend: 0x0, symName: __ZNSt3__112__to_addressB8ue170006INS_16reverse_iteratorINS1_IPNS_4pairIiiEEEEEEvEEu7__decayIDTclsr19__to_address_helperIT_EE6__callclsr3stdE7declvalIRKS7_EEEEES9_, symObjAddr: 0x5E40, symBinAddr: 0x100006B60, symSize: 0x20 }
  - { offsetInCU: 0xA664, offset: 0xA664, size: 0x8, addend: 0x0, symName: __ZNSt3__130__uninitialized_allocator_copyB8ue170006INS_9allocatorINS_6vectorIcNS1_IcEEEEEEPS4_S6_S6_EET2_RT_T0_T1_S7_, symObjAddr: 0x6400, symBinAddr: 0x100007120, symSize: 0x80 }
  - { offsetInCU: 0xA701, offset: 0xA701, size: 0x8, addend: 0x0, symName: __ZNSt3__114__unwrap_rangeB8ue170006IPNS_6vectorIcNS_9allocatorIcEEEES5_EENS_4pairIT0_S7_EET_S9_, symObjAddr: 0x6480, symBinAddr: 0x1000071A0, symSize: 0x50 }
  - { offsetInCU: 0xA74D, offset: 0xA74D, size: 0x8, addend: 0x0, symName: __ZNSt3__135__uninitialized_allocator_copy_implB8ue170006INS_9allocatorINS_6vectorIcNS1_IcEEEEEEPS4_S6_S6_EET2_RT_T0_T1_S7_, symObjAddr: 0x64D0, symBinAddr: 0x1000071F0, symSize: 0x100 }
  - { offsetInCU: 0xA7EB, offset: 0xA7EB, size: 0x8, addend: 0x0, symName: __ZNSt3__113__unwrap_iterB8ue170006IPNS_6vectorIcNS_9allocatorIcEEEENS_18__unwrap_iter_implIS5_Lb1EEELi0EEEDTclsrT0_8__unwrapclsr3stdE7declvalIT_EEEES9_, symObjAddr: 0x65D0, symBinAddr: 0x1000072F0, symSize: 0x20 }
  - { offsetInCU: 0xA82F, offset: 0xA82F, size: 0x8, addend: 0x0, symName: __ZNSt3__113__rewrap_iterB8ue170006IPNS_6vectorIcNS_9allocatorIcEEEES5_NS_18__unwrap_iter_implIS5_Lb1EEEEET_S8_T0_, symObjAddr: 0x65F0, symBinAddr: 0x100007310, symSize: 0x40 }
  - { offsetInCU: 0xA884, offset: 0xA884, size: 0x8, addend: 0x0, symName: __ZNSt3__19make_pairB8ue170006IPNS_6vectorIcNS_9allocatorIcEEEES5_EENS_4pairINS_18__unwrap_ref_decayIT_E4typeENS7_IT0_E4typeEEEOS8_OSB_, symObjAddr: 0x6630, symBinAddr: 0x100007350, symSize: 0x30 }
  - { offsetInCU: 0xA9A7, offset: 0xA9A7, size: 0x8, addend: 0x0, symName: __ZNSt3__122__make_exception_guardB8ue170006INS_29_AllocatorDestroyRangeReverseINS_9allocatorINS_6vectorIcNS2_IcEEEEEEPS5_EEEENS_28__exception_guard_exceptionsIT_EESA_, symObjAddr: 0x66C0, symBinAddr: 0x1000073E0, symSize: 0x60 }
  - { offsetInCU: 0xA9DC, offset: 0xA9DC, size: 0x8, addend: 0x0, symName: __ZNSt3__119__allocator_destroyB8ue170006INS_9allocatorINS_6vectorIcNS1_IcEEEEEENS_16reverse_iteratorIPS4_EES8_EEvRT_T0_T1_, symObjAddr: 0x6950, symBinAddr: 0x100007670, symSize: 0x70 }
  - { offsetInCU: 0xAA3F, offset: 0xAA3F, size: 0x8, addend: 0x0, symName: __ZNSt3__1neB8ue170006IPNS_6vectorIcNS_9allocatorIcEEEES5_EEbRKNS_16reverse_iteratorIT_EERKNS6_IT0_EE, symObjAddr: 0x69F0, symBinAddr: 0x100007710, symSize: 0x40 }
  - { offsetInCU: 0xAA8B, offset: 0xAA8B, size: 0x8, addend: 0x0, symName: __ZNSt3__112__to_addressB8ue170006INS_16reverse_iteratorIPNS_6vectorIcNS_9allocatorIcEEEEEEvEEu7__decayIDTclsr19__to_address_helperIT_EE6__callclsr3stdE7declvalIRKS8_EEEEESA_, symObjAddr: 0x6A30, symBinAddr: 0x100007750, symSize: 0x20 }
  - { offsetInCU: 0xAB3D, offset: 0xAB3D, size: 0x8, addend: 0x0, symName: __ZNSt3__18distanceB8ue170006IPNS_6vectorIcNS_9allocatorIcEEEEEENS_15iterator_traitsIT_E15difference_typeES7_S7_, symObjAddr: 0x6DD0, symBinAddr: 0x100007AF0, symSize: 0x30 }
  - { offsetInCU: 0xAB80, offset: 0xAB80, size: 0x8, addend: 0x0, symName: __ZNSt3__14nextB8ue170006IPNS_6vectorIcNS_9allocatorIcEEEEEENS_9enable_ifIXsr29__has_input_iterator_categoryIT_EE5valueES7_E4typeES7_NS_15iterator_traitsIS7_E15difference_typeE, symObjAddr: 0x6E00, symBinAddr: 0x100007B20, symSize: 0x30 }
  - { offsetInCU: 0xABC3, offset: 0xABC3, size: 0x8, addend: 0x0, symName: __ZNSt3__14copyB8ue170006IPNS_6vectorIcNS_9allocatorIcEEEES5_EET0_T_S7_S6_, symObjAddr: 0x6E30, symBinAddr: 0x100007B50, symSize: 0x40 }
  - { offsetInCU: 0xAC1D, offset: 0xAC1D, size: 0x8, addend: 0x0, symName: __ZNSt3__16__copyB8ue170006INS_17_ClassicAlgPolicyEPNS_6vectorIcNS_9allocatorIcEEEES6_S6_EENS_4pairIT0_T2_EES8_T1_S9_, symObjAddr: 0x6E70, symBinAddr: 0x100007B90, symSize: 0x40 }
  - { offsetInCU: 0xAC89, offset: 0xAC89, size: 0x8, addend: 0x0, symName: __ZNSt3__121__convert_to_integralB8ue170006El, symObjAddr: 0x7060, symBinAddr: 0x100007D80, symSize: 0x10 }
  - { offsetInCU: 0xACB5, offset: 0xACB5, size: 0x8, addend: 0x0, symName: __ZNSt3__19__advanceB8ue170006IPNS_6vectorIcNS_9allocatorIcEEEEEEvRT_NS_15iterator_traitsIS6_E15difference_typeENS_26random_access_iterator_tagE, symObjAddr: 0x7070, symBinAddr: 0x100007D90, symSize: 0x20 }
  - { offsetInCU: 0xACFE, offset: 0xACFE, size: 0x8, addend: 0x0, symName: __ZNSt3__123__dispatch_copy_or_moveB8ue170006INS_17_ClassicAlgPolicyENS_11__copy_loopIS1_EENS_14__copy_trivialEPNS_6vectorIcNS_9allocatorIcEEEES9_S9_EENS_4pairIT2_T4_EESB_T3_SC_, symObjAddr: 0x7090, symBinAddr: 0x100007DB0, symSize: 0x40 }
  - { offsetInCU: 0xAD7C, offset: 0xAD7C, size: 0x8, addend: 0x0, symName: __ZNSt3__121__unwrap_and_dispatchB8ue170006INS_10__overloadINS_11__copy_loopINS_17_ClassicAlgPolicyEEENS_14__copy_trivialEEEPNS_6vectorIcNS_9allocatorIcEEEESB_SB_Li0EEENS_4pairIT0_T2_EESD_T1_SE_, symObjAddr: 0x70D0, symBinAddr: 0x100007DF0, symSize: 0xB0 }
  - { offsetInCU: 0xAE66, offset: 0xAE66, size: 0x8, addend: 0x0, symName: __ZNSt3__114__rewrap_rangeB8ue170006IPNS_6vectorIcNS_9allocatorIcEEEES5_EET_S6_T0_, symObjAddr: 0x7200, symBinAddr: 0x100007F20, symSize: 0x30 }
  - { offsetInCU: 0xAEB2, offset: 0xAEB2, size: 0x8, addend: 0x0, symName: __ZNSt3__18distanceB8ue170006IPcEENS_15iterator_traitsIT_E15difference_typeES3_S3_, symObjAddr: 0x7490, symBinAddr: 0x1000081B0, symSize: 0x30 }
  - { offsetInCU: 0xAEF5, offset: 0xAEF5, size: 0x8, addend: 0x0, symName: __ZNSt3__14nextB8ue170006IPcEENS_9enable_ifIXsr29__has_input_iterator_categoryIT_EE5valueES3_E4typeES3_NS_15iterator_traitsIS3_E15difference_typeE, symObjAddr: 0x74C0, symBinAddr: 0x1000081E0, symSize: 0x30 }
  - { offsetInCU: 0xAF38, offset: 0xAF38, size: 0x8, addend: 0x0, symName: __ZNSt3__19__advanceB8ue170006IPcEEvRT_NS_15iterator_traitsIS2_E15difference_typeENS_26random_access_iterator_tagE, symObjAddr: 0x76A0, symBinAddr: 0x1000083C0, symSize: 0x20 }
  - { offsetInCU: 0xAF81, offset: 0xAF81, size: 0x8, addend: 0x0, symName: __ZNSt3__110__distanceB8ue170006IPcEENS_15iterator_traitsIT_E15difference_typeES3_S3_NS_26random_access_iterator_tagE, symObjAddr: 0x7790, symBinAddr: 0x1000084B0, symSize: 0x20 }
  - { offsetInCU: 0xAFCE, offset: 0xAFCE, size: 0x8, addend: 0x0, symName: __ZNSt3__110__distanceB8ue170006IPNS_6vectorIcNS_9allocatorIcEEEEEENS_15iterator_traitsIT_E15difference_typeES7_S7_NS_26random_access_iterator_tagE, symObjAddr: 0x7890, symBinAddr: 0x1000085B0, symSize: 0x23 }
  - { offsetInCU: 0xB3D7, offset: 0xB3D7, size: 0x8, addend: 0x0, symName: __ZSt28__throw_bad_array_new_lengthB8ue170006v, symObjAddr: 0x23A0, symBinAddr: 0x1000030C0, symSize: 0x40 }
  - { offsetInCU: 0xBB97, offset: 0xBB97, size: 0x8, addend: 0x0, symName: __ZNSt3__16vectorINS_4pairIiiEENS_9allocatorIS2_EEE26__swap_out_circular_bufferERNS_14__split_bufferIS2_RS4_EE, symObjAddr: 0x5160, symBinAddr: 0x100005E80, symSize: 0x120 }
  - { offsetInCU: 0xDFD4, offset: 0xDFD4, size: 0x8, addend: 0x0, symName: __ZNSt3__16vectorIcNS_9allocatorIcEEEC1EmRKc, symObjAddr: 0x0, symBinAddr: 0x100000D20, symSize: 0x30 }
  - { offsetInCU: 0xE01D, offset: 0xE01D, size: 0x8, addend: 0x0, symName: __ZNSt3__16vectorINS0_IcNS_9allocatorIcEEEENS1_IS3_EEEC1EmRKS3_, symObjAddr: 0x30, symBinAddr: 0x100000D50, symSize: 0x30 }
  - { offsetInCU: 0xE066, offset: 0xE066, size: 0x8, addend: 0x0, symName: __ZNSt3__16vectorIcNS_9allocatorIcEEED1B8ue170006Ev, symObjAddr: 0x60, symBinAddr: 0x100000D80, symSize: 0x20 }
  - { offsetInCU: 0xE08F, offset: 0xE08F, size: 0x8, addend: 0x0, symName: __ZNSt3__16vectorINS0_IcNS_9allocatorIcEEEENS1_IS3_EEED1B8ue170006Ev, symObjAddr: 0x80, symBinAddr: 0x100000DA0, symSize: 0x20 }
  - { offsetInCU: 0xE0B8, offset: 0xE0B8, size: 0x8, addend: 0x0, symName: __Z16initialize_boardv, symObjAddr: 0xA0, symBinAddr: 0x100000DC0, symSize: 0x90 }
  - { offsetInCU: 0xE0D1, offset: 0xE0D1, size: 0x8, addend: 0x0, symName: __ZNSt3__16vectorINS0_IcNS_9allocatorIcEEEENS1_IS3_EEEixB8ue170006Em, symObjAddr: 0x130, symBinAddr: 0x100000E50, symSize: 0x20 }
  - { offsetInCU: 0xE106, offset: 0xE106, size: 0x8, addend: 0x0, symName: __ZNSt3__16vectorIcNS_9allocatorIcEEEixB8ue170006Em, symObjAddr: 0x150, symBinAddr: 0x100000E70, symSize: 0x20 }
  - { offsetInCU: 0xE13B, offset: 0xE13B, size: 0x8, addend: 0x0, symName: __Z11print_boardv, symObjAddr: 0x170, symBinAddr: 0x100000E90, symSize: 0x120 }
  - { offsetInCU: 0xE1AD, offset: 0xE1AD, size: 0x8, addend: 0x0, symName: __ZNSt3__113basic_ostreamIcNS_11char_traitsIcEEElsB8ue170006EPFRS3_S4_E, symObjAddr: 0x2D0, symBinAddr: 0x100000FF0, symSize: 0x20 }
  - { offsetInCU: 0xE1DF, offset: 0xE1DF, size: 0x8, addend: 0x0, symName: __Z16calculate_scoresv, symObjAddr: 0x370, symBinAddr: 0x100001090, symSize: 0xF0 }
  - { offsetInCU: 0xE253, offset: 0xE253, size: 0x8, addend: 0x0, symName: __Z12print_scoresv, symObjAddr: 0x490, symBinAddr: 0x1000011B0, symSize: 0xA0 }
  - { offsetInCU: 0xE297, offset: 0xE297, size: 0x8, addend: 0x0, symName: __Z14get_user_inputv, symObjAddr: 0x530, symBinAddr: 0x100001250, symSize: 0x70 }
  - { offsetInCU: 0xE2D1, offset: 0xE2D1, size: 0x8, addend: 0x0, symName: __Z13is_valid_moveiic, symObjAddr: 0x5A0, symBinAddr: 0x1000012C0, symSize: 0x2C0 }
  - { offsetInCU: 0xE394, offset: 0xE394, size: 0x8, addend: 0x0, symName: __Z23print_highlighted_boardc, symObjAddr: 0x860, symBinAddr: 0x100001580, symSize: 0x210 }
  - { offsetInCU: 0xE42E, offset: 0xE42E, size: 0x8, addend: 0x0, symName: __ZNSt3__16vectorINS_4pairIiiEENS_9allocatorIS2_EEEC1B8ue170006Ev, symObjAddr: 0xA70, symBinAddr: 0x100001790, symSize: 0x20 }
  - { offsetInCU: 0xE456, offset: 0xE456, size: 0x8, addend: 0x0, symName: __ZNSt3__16vectorINS_4pairIiiEENS_9allocatorIS2_EEE9push_backB8ue170006EOS2_, symObjAddr: 0xA90, symBinAddr: 0x1000017B0, symSize: 0x60 }
  - { offsetInCU: 0xE48C, offset: 0xE48C, size: 0x8, addend: 0x0, symName: __ZNKSt3__16vectorINS_4pairIiiEENS_9allocatorIS2_EEE4sizeB8ue170006Ev, symObjAddr: 0xAF0, symBinAddr: 0x100001810, symSize: 0x20 }
  - { offsetInCU: 0xE4B0, offset: 0xE4B0, size: 0x8, addend: 0x0, symName: __ZNSt3__16vectorINS_4pairIiiEENS_9allocatorIS2_EEEixB8ue170006Em, symObjAddr: 0xB10, symBinAddr: 0x100001830, symSize: 0x20 }
  - { offsetInCU: 0xE4E6, offset: 0xE4E6, size: 0x8, addend: 0x0, symName: __ZNSt3__16vectorINS_4pairIiiEENS_9allocatorIS2_EEED1B8ue170006Ev, symObjAddr: 0xB30, symBinAddr: 0x100001850, symSize: 0x20 }
  - { offsetInCU: 0xE50E, offset: 0xE50E, size: 0x8, addend: 0x0, symName: __Z9make_moveiic, symObjAddr: 0xB50, symBinAddr: 0x100001870, symSize: 0x2F0 }
  - { offsetInCU: 0xE5CD, offset: 0xE5CD, size: 0x8, addend: 0x0, symName: __Z12is_game_overv, symObjAddr: 0xE40, symBinAddr: 0x100001B60, symSize: 0x100 }
  - { offsetInCU: 0xE641, offset: 0xE641, size: 0x8, addend: 0x0, symName: __Z21print_winning_messagev, symObjAddr: 0xF40, symBinAddr: 0x100001C60, symSize: 0x140 }
  - { offsetInCU: 0xE6B6, offset: 0xE6B6, size: 0x8, addend: 0x0, symName: __Z9turn_skipc, symObjAddr: 0x1080, symBinAddr: 0x100001DA0, symSize: 0xC0 }
  - { offsetInCU: 0xE720, offset: 0xE720, size: 0x8, addend: 0x0, symName: __Z13switch_playerRc, symObjAddr: 0x1140, symBinAddr: 0x100001E60, symSize: 0x40 }
  - { offsetInCU: 0xE74A, offset: 0xE74A, size: 0x8, addend: 0x0, symName: __Z14evaluate_boardc, symObjAddr: 0x1180, symBinAddr: 0x100001EA0, symSize: 0x100 }
  - { offsetInCU: 0xE7D2, offset: 0xE7D2, size: 0x8, addend: 0x0, symName: __Z7negamaxiiic, symObjAddr: 0x1280, symBinAddr: 0x100001FA0, symSize: 0x1D0 }
  - { offsetInCU: 0xE88B, offset: 0xE88B, size: 0x8, addend: 0x0, symName: __ZNSt3__16vectorINS0_IcNS_9allocatorIcEEEENS1_IS3_EEEC1ERKS5_, symObjAddr: 0x1450, symBinAddr: 0x100002170, symSize: 0x30 }
  - { offsetInCU: 0xE8C4, offset: 0xE8C4, size: 0x8, addend: 0x0, symName: __ZNSt3__16vectorINS0_IcNS_9allocatorIcEEEENS1_IS3_EEEaSB8ue170006ERKS5_, symObjAddr: 0x1480, symBinAddr: 0x1000021A0, symSize: 0x60 }
  - { offsetInCU: 0xE8F9, offset: 0xE8F9, size: 0x8, addend: 0x0, symName: __Z12predict_movec, symObjAddr: 0x1510, symBinAddr: 0x100002230, symSize: 0x170 }
  - { offsetInCU: 0xE99D, offset: 0xE99D, size: 0x8, addend: 0x0, symName: __ZNSt3__14pairIiiEC1B8ue170006ILb1ELPv0EEEv, symObjAddr: 0x1680, symBinAddr: 0x1000023A0, symSize: 0x20 }
  - { offsetInCU: 0xE9D6, offset: 0xE9D6, size: 0x8, addend: 0x0, symName: __ZNSt3__14pairIiiEaSB8ue170006EOS1_, symObjAddr: 0x16A0, symBinAddr: 0x1000023C0, symSize: 0x30 }
  - { offsetInCU: 0xEA09, offset: 0xEA09, size: 0x8, addend: 0x0, symName: __Z13get_game_modev, symObjAddr: 0x16D0, symBinAddr: 0x1000023F0, symSize: 0x110 }
  - { offsetInCU: 0xEA38, offset: 0xEA38, size: 0x8, addend: 0x0, symName: _main, symObjAddr: 0x17E0, symBinAddr: 0x100002500, symSize: 0x240 }
  - { offsetInCU: 0xEAC2, offset: 0xEAC2, size: 0x8, addend: 0x0, symName: __ZNSt3__14pairIiiEC1B8ue170006IRiS3_LPv0EEEOT_OT0_, symObjAddr: 0x1A20, symBinAddr: 0x100002740, symSize: 0x30 }
  - { offsetInCU: 0xEB1F, offset: 0xEB1F, size: 0x8, addend: 0x0, symName: __ZNSt3__14pairIiiEC2B8ue170006IRiS3_LPv0EEEOT_OT0_, symObjAddr: 0x1A50, symBinAddr: 0x100002770, symSize: 0x30 }
  - { offsetInCU: 0xEB8B, offset: 0xEB8B, size: 0x8, addend: 0x0, symName: __ZNKSt3__16__lessIvvEclB8ue170006IiiEEbRKT_RKT0_, symObjAddr: 0x1AD0, symBinAddr: 0x1000027F0, symSize: 0x30 }
  - { offsetInCU: 0xEBDE, offset: 0xEBDE, size: 0x8, addend: 0x0, symName: __ZNSt3__14pairIiiEC2B8ue170006ILb1ELPv0EEEv, symObjAddr: 0x1B00, symBinAddr: 0x100002820, symSize: 0x20 }
  - { offsetInCU: 0xEC17, offset: 0xEC17, size: 0x8, addend: 0x0, symName: __ZNSt3__16vectorIcNS_9allocatorIcEEEC2EmRKc, symObjAddr: 0x1B20, symBinAddr: 0x100002840, symSize: 0xE0 }
  - { offsetInCU: 0xEC7F, offset: 0xEC7F, size: 0x8, addend: 0x0, symName: __ZNSt3__117__compressed_pairIPcNS_9allocatorIcEEEC1B8ue170006IDnNS_18__default_init_tagEEEOT_OT0_, symObjAddr: 0x1C00, symBinAddr: 0x100002920, symSize: 0x30 }
  - { offsetInCU: 0xECD6, offset: 0xECD6, size: 0x8, addend: 0x0, symName: __ZNSt3__16vectorIcNS_9allocatorIcEEE16__destroy_vectorC1B8ue170006ERS3_, symObjAddr: 0x1C70, symBinAddr: 0x100002990, symSize: 0x30 }
  - { offsetInCU: 0xED0E, offset: 0xED0E, size: 0x8, addend: 0x0, symName: __ZNSt3__16vectorIcNS_9allocatorIcEEE11__vallocateB8ue170006Em, symObjAddr: 0x1CA0, symBinAddr: 0x1000029C0, symSize: 0xA0 }
  - { offsetInCU: 0xED50, offset: 0xED50, size: 0x8, addend: 0x0, symName: __ZNSt3__16vectorIcNS_9allocatorIcEEE18__construct_at_endEmRKc, symObjAddr: 0x1D40, symBinAddr: 0x100002A60, symSize: 0xC0 }
  - { offsetInCU: 0xEDD1, offset: 0xEDD1, size: 0x8, addend: 0x0, symName: __ZNSt3__128__exception_guard_exceptionsINS_6vectorIcNS_9allocatorIcEEE16__destroy_vectorEE10__completeB8ue170006Ev, symObjAddr: 0x1E00, symBinAddr: 0x100002B20, symSize: 0x20 }
  - { offsetInCU: 0xEDF6, offset: 0xEDF6, size: 0x8, addend: 0x0, symName: __ZNSt3__128__exception_guard_exceptionsINS_6vectorIcNS_9allocatorIcEEE16__destroy_vectorEED1B8ue170006Ev, symObjAddr: 0x1E20, symBinAddr: 0x100002B40, symSize: 0x20 }
  - { offsetInCU: 0xEE1F, offset: 0xEE1F, size: 0x8, addend: 0x0, symName: __ZNSt3__117__compressed_pairIPcNS_9allocatorIcEEEC2B8ue170006IDnNS_18__default_init_tagEEEOT_OT0_, symObjAddr: 0x1E40, symBinAddr: 0x100002B60, symSize: 0x40 }
  - { offsetInCU: 0xEE76, offset: 0xEE76, size: 0x8, addend: 0x0, symName: __ZNSt3__122__compressed_pair_elemIPcLi0ELb0EEC2B8ue170006IDnvEEOT_, symObjAddr: 0x1E80, symBinAddr: 0x100002BA0, symSize: 0x20 }
  - { offsetInCU: 0xEEB7, offset: 0xEEB7, size: 0x8, addend: 0x0, symName: __ZNSt3__122__compressed_pair_elemINS_9allocatorIcEELi1ELb1EEC2B8ue170006ENS_18__default_init_tagE, symObjAddr: 0x1EA0, symBinAddr: 0x100002BC0, symSize: 0x20 }
  - { offsetInCU: 0xEEEA, offset: 0xEEEA, size: 0x8, addend: 0x0, symName: __ZNSt3__19allocatorIcEC2B8ue170006Ev, symObjAddr: 0x1EC0, symBinAddr: 0x100002BE0, symSize: 0x20 }
  - { offsetInCU: 0xEF13, offset: 0xEF13, size: 0x8, addend: 0x0, symName: __ZNSt3__116__non_trivial_ifILb1ENS_9allocatorIcEEEC2B8ue170006Ev, symObjAddr: 0x1EE0, symBinAddr: 0x100002C00, symSize: 0x10 }
  - { offsetInCU: 0xEF3C, offset: 0xEF3C, size: 0x8, addend: 0x0, symName: __ZNSt3__128__exception_guard_exceptionsINS_6vectorIcNS_9allocatorIcEEE16__destroy_vectorEEC1B8ue170006ES5_, symObjAddr: 0x1EF0, symBinAddr: 0x100002C10, symSize: 0x30 }
  - { offsetInCU: 0xEF73, offset: 0xEF73, size: 0x8, addend: 0x0, symName: __ZNSt3__128__exception_guard_exceptionsINS_6vectorIcNS_9allocatorIcEEE16__destroy_vectorEEC2B8ue170006ES5_, symObjAddr: 0x1F20, symBinAddr: 0x100002C40, symSize: 0x20 }
  - { offsetInCU: 0xEFAA, offset: 0xEFAA, size: 0x8, addend: 0x0, symName: __ZNSt3__16vectorIcNS_9allocatorIcEEE16__destroy_vectorC2B8ue170006ERS3_, symObjAddr: 0x1F40, symBinAddr: 0x100002C60, symSize: 0x20 }
  - { offsetInCU: 0xEFE1, offset: 0xEFE1, size: 0x8, addend: 0x0, symName: __ZNKSt3__16vectorIcNS_9allocatorIcEEE8max_sizeEv, symObjAddr: 0x1F60, symBinAddr: 0x100002C80, symSize: 0x60 }
  - { offsetInCU: 0xF008, offset: 0xF008, size: 0x8, addend: 0x0, symName: __ZNKSt3__16vectorIcNS_9allocatorIcEEE20__throw_length_errorB8ue170006Ev, symObjAddr: 0x1FC0, symBinAddr: 0x100002CE0, symSize: 0x20 }
  - { offsetInCU: 0xF02D, offset: 0xF02D, size: 0x8, addend: 0x0, symName: __ZNSt3__16vectorIcNS_9allocatorIcEEE7__allocB8ue170006Ev, symObjAddr: 0x2020, symBinAddr: 0x100002D40, symSize: 0x20 }
  - { offsetInCU: 0xF052, offset: 0xF052, size: 0x8, addend: 0x0, symName: __ZNSt3__16vectorIcNS_9allocatorIcEEE9__end_capB8ue170006Ev, symObjAddr: 0x2040, symBinAddr: 0x100002D60, symSize: 0x20 }
  - { offsetInCU: 0xF077, offset: 0xF077, size: 0x8, addend: 0x0, symName: __ZNKSt3__16vectorIcNS_9allocatorIcEEE14__annotate_newB8ue170006Em, symObjAddr: 0x2060, symBinAddr: 0x100002D80, symSize: 0xA0 }
  - { offsetInCU: 0xF0B5, offset: 0xF0B5, size: 0x8, addend: 0x0, symName: __ZNSt3__116allocator_traitsINS_9allocatorIcEEE8max_sizeB8ue170006IS2_vEEmRKS2_, symObjAddr: 0x2130, symBinAddr: 0x100002E50, symSize: 0x20 }
  - { offsetInCU: 0xF0E3, offset: 0xF0E3, size: 0x8, addend: 0x0, symName: __ZNKSt3__16vectorIcNS_9allocatorIcEEE7__allocB8ue170006Ev, symObjAddr: 0x2150, symBinAddr: 0x100002E70, symSize: 0x20 }
  - { offsetInCU: 0xF108, offset: 0xF108, size: 0x8, addend: 0x0, symName: __ZNSt3__114numeric_limitsIlE3maxB8ue170006Ev, symObjAddr: 0x2170, symBinAddr: 0x100002E90, symSize: 0x10 }
  - { offsetInCU: 0xF126, offset: 0xF126, size: 0x8, addend: 0x0, symName: __ZNKSt3__16__lessIvvEclB8ue170006ImmEEbRKT_RKT0_, symObjAddr: 0x21E0, symBinAddr: 0x100002F00, symSize: 0x30 }
  - { offsetInCU: 0xF179, offset: 0xF179, size: 0x8, addend: 0x0, symName: __ZNKSt3__19allocatorIcE8max_sizeB8ue170006Ev, symObjAddr: 0x2210, symBinAddr: 0x100002F30, symSize: 0x20 }
  - { offsetInCU: 0xF19E, offset: 0xF19E, size: 0x8, addend: 0x0, symName: __ZNKSt3__117__compressed_pairIPcNS_9allocatorIcEEE6secondB8ue170006Ev, symObjAddr: 0x2230, symBinAddr: 0x100002F50, symSize: 0x20 }
  - { offsetInCU: 0xF1C3, offset: 0xF1C3, size: 0x8, addend: 0x0, symName: __ZNKSt3__122__compressed_pair_elemINS_9allocatorIcEELi1ELb1EE5__getB8ue170006Ev, symObjAddr: 0x2250, symBinAddr: 0x100002F70, symSize: 0x10 }
  - { offsetInCU: 0xF1E8, offset: 0xF1E8, size: 0x8, addend: 0x0, symName: __ZNSt3__123__libcpp_numeric_limitsIlLb1EE3maxB8ue170006Ev, symObjAddr: 0x2260, symBinAddr: 0x100002F80, symSize: 0x10 }
  - { offsetInCU: 0xF1FC, offset: 0xF1FC, size: 0x8, addend: 0x0, symName: __ZNSt12length_errorC1B8ue170006EPKc, symObjAddr: 0x22E0, symBinAddr: 0x100003000, symSize: 0x30 }
  - { offsetInCU: 0xF233, offset: 0xF233, size: 0x8, addend: 0x0, symName: __ZNSt12length_errorC2B8ue170006EPKc, symObjAddr: 0x2310, symBinAddr: 0x100003030, symSize: 0x40 }
  - { offsetInCU: 0xF26A, offset: 0xF26A, size: 0x8, addend: 0x0, symName: __ZNSt3__19allocatorIcE8allocateB8ue170006Em, symObjAddr: 0x2350, symBinAddr: 0x100003070, symSize: 0x50 }
  - { offsetInCU: 0xF29D, offset: 0xF29D, size: 0x8, addend: 0x0, symName: __ZNSt3__117__compressed_pairIPcNS_9allocatorIcEEE6secondB8ue170006Ev, symObjAddr: 0x2420, symBinAddr: 0x100003140, symSize: 0x20 }
  - { offsetInCU: 0xF2C2, offset: 0xF2C2, size: 0x8, addend: 0x0, symName: __ZNSt3__122__compressed_pair_elemINS_9allocatorIcEELi1ELb1EE5__getB8ue170006Ev, symObjAddr: 0x2440, symBinAddr: 0x100003160, symSize: 0x10 }
  - { offsetInCU: 0xF2E7, offset: 0xF2E7, size: 0x8, addend: 0x0, symName: __ZNSt3__117__compressed_pairIPcNS_9allocatorIcEEE5firstB8ue170006Ev, symObjAddr: 0x2450, symBinAddr: 0x100003170, symSize: 0x20 }
  - { offsetInCU: 0xF30C, offset: 0xF30C, size: 0x8, addend: 0x0, symName: __ZNSt3__122__compressed_pair_elemIPcLi0ELb0EE5__getB8ue170006Ev, symObjAddr: 0x2470, symBinAddr: 0x100003190, symSize: 0x10 }
  - { offsetInCU: 0xF331, offset: 0xF331, size: 0x8, addend: 0x0, symName: __ZNKSt3__16vectorIcNS_9allocatorIcEEE31__annotate_contiguous_containerB8ue170006EPKvS5_S5_S5_, symObjAddr: 0x2480, symBinAddr: 0x1000031A0, symSize: 0x20 }
  - { offsetInCU: 0xF382, offset: 0xF382, size: 0x8, addend: 0x0, symName: __ZNKSt3__16vectorIcNS_9allocatorIcEEE4dataB8ue170006Ev, symObjAddr: 0x24A0, symBinAddr: 0x1000031C0, symSize: 0x20 }
  - { offsetInCU: 0xF3A7, offset: 0xF3A7, size: 0x8, addend: 0x0, symName: __ZNKSt3__16vectorIcNS_9allocatorIcEEE8capacityB8ue170006Ev, symObjAddr: 0x24C0, symBinAddr: 0x1000031E0, symSize: 0x30 }
  - { offsetInCU: 0xF3CC, offset: 0xF3CC, size: 0x8, addend: 0x0, symName: __ZNKSt3__16vectorIcNS_9allocatorIcEEE9__end_capB8ue170006Ev, symObjAddr: 0x2500, symBinAddr: 0x100003220, symSize: 0x20 }
  - { offsetInCU: 0xF3F1, offset: 0xF3F1, size: 0x8, addend: 0x0, symName: __ZNKSt3__117__compressed_pairIPcNS_9allocatorIcEEE5firstB8ue170006Ev, symObjAddr: 0x2520, symBinAddr: 0x100003240, symSize: 0x20 }
  - { offsetInCU: 0xF416, offset: 0xF416, size: 0x8, addend: 0x0, symName: __ZNKSt3__122__compressed_pair_elemIPcLi0ELb0EE5__getB8ue170006Ev, symObjAddr: 0x2540, symBinAddr: 0x100003260, symSize: 0x10 }
  - { offsetInCU: 0xF454, offset: 0xF454, size: 0x8, addend: 0x0, symName: __ZNSt3__16vectorIcNS_9allocatorIcEEE21_ConstructTransactionC1B8ue170006ERS3_m, symObjAddr: 0x2550, symBinAddr: 0x100003270, symSize: 0x30 }
  - { offsetInCU: 0xF49B, offset: 0xF49B, size: 0x8, addend: 0x0, symName: __ZNSt3__116allocator_traitsINS_9allocatorIcEEE9constructB8ue170006IcJRKcEvEEvRS2_PT_DpOT0_, symObjAddr: 0x2580, symBinAddr: 0x1000032A0, symSize: 0x30 }
  - { offsetInCU: 0xF4F2, offset: 0xF4F2, size: 0x8, addend: 0x0, symName: __ZNSt3__16vectorIcNS_9allocatorIcEEE21_ConstructTransactionD1B8ue170006Ev, symObjAddr: 0x25B0, symBinAddr: 0x1000032D0, symSize: 0x20 }
  - { offsetInCU: 0xF51B, offset: 0xF51B, size: 0x8, addend: 0x0, symName: __ZNSt3__16vectorIcNS_9allocatorIcEEE21_ConstructTransactionC2B8ue170006ERS3_m, symObjAddr: 0x25D0, symBinAddr: 0x1000032F0, symSize: 0x40 }
  - { offsetInCU: 0xF562, offset: 0xF562, size: 0x8, addend: 0x0, symName: __ZNSt3__19allocatorIcE9constructB8ue170006IcJRKcEEEvPT_DpOT0_, symObjAddr: 0x2610, symBinAddr: 0x100003330, symSize: 0x20 }
  - { offsetInCU: 0xF5B7, offset: 0xF5B7, size: 0x8, addend: 0x0, symName: __ZNSt3__16vectorIcNS_9allocatorIcEEE21_ConstructTransactionD2B8ue170006Ev, symObjAddr: 0x2630, symBinAddr: 0x100003350, symSize: 0x20 }
  - { offsetInCU: 0xF5E0, offset: 0xF5E0, size: 0x8, addend: 0x0, symName: __ZNSt3__128__exception_guard_exceptionsINS_6vectorIcNS_9allocatorIcEEE16__destroy_vectorEED2B8ue170006Ev, symObjAddr: 0x2650, symBinAddr: 0x100003370, symSize: 0x40 }
  - { offsetInCU: 0xF609, offset: 0xF609, size: 0x8, addend: 0x0, symName: __ZNSt3__16vectorIcNS_9allocatorIcEEE16__destroy_vectorclB8ue170006Ev, symObjAddr: 0x2690, symBinAddr: 0x1000033B0, symSize: 0x80 }
  - { offsetInCU: 0xF62E, offset: 0xF62E, size: 0x8, addend: 0x0, symName: __ZNSt3__16vectorIcNS_9allocatorIcEEE7__clearB8ue170006Ev, symObjAddr: 0x2710, symBinAddr: 0x100003430, symSize: 0x20 }
  - { offsetInCU: 0xF653, offset: 0xF653, size: 0x8, addend: 0x0, symName: __ZNKSt3__16vectorIcNS_9allocatorIcEEE17__annotate_deleteB8ue170006Ev, symObjAddr: 0x2730, symBinAddr: 0x100003450, symSize: 0xA0 }
  - { offsetInCU: 0xF678, offset: 0xF678, size: 0x8, addend: 0x0, symName: __ZNSt3__116allocator_traitsINS_9allocatorIcEEE10deallocateB8ue170006ERS2_Pcm, symObjAddr: 0x27D0, symBinAddr: 0x1000034F0, symSize: 0x30 }
  - { offsetInCU: 0xF6BA, offset: 0xF6BA, size: 0x8, addend: 0x0, symName: __ZNSt3__16vectorIcNS_9allocatorIcEEE22__base_destruct_at_endB8ue170006EPc, symObjAddr: 0x2800, symBinAddr: 0x100003520, symSize: 0x80 }
  - { offsetInCU: 0xF6FD, offset: 0xF6FD, size: 0x8, addend: 0x0, symName: __ZNSt3__116allocator_traitsINS_9allocatorIcEEE7destroyB8ue170006IcvEEvRS2_PT_, symObjAddr: 0x2880, symBinAddr: 0x1000035A0, symSize: 0x30 }
  - { offsetInCU: 0xF73A, offset: 0xF73A, size: 0x8, addend: 0x0, symName: __ZNSt3__19allocatorIcE7destroyB8ue170006EPc, symObjAddr: 0x28B0, symBinAddr: 0x1000035D0, symSize: 0x10 }
  - { offsetInCU: 0xF76D, offset: 0xF76D, size: 0x8, addend: 0x0, symName: __ZNKSt3__16vectorIcNS_9allocatorIcEEE4sizeB8ue170006Ev, symObjAddr: 0x28C0, symBinAddr: 0x1000035E0, symSize: 0x20 }
  - { offsetInCU: 0xF792, offset: 0xF792, size: 0x8, addend: 0x0, symName: __ZNSt3__19allocatorIcE10deallocateB8ue170006EPcm, symObjAddr: 0x28E0, symBinAddr: 0x100003600, symSize: 0x40 }
  - { offsetInCU: 0xF7D3, offset: 0xF7D3, size: 0x8, addend: 0x0, symName: __ZNSt3__16vectorIcNS_9allocatorIcEEED2B8ue170006Ev, symObjAddr: 0x2990, symBinAddr: 0x1000036B0, symSize: 0x40 }
  - { offsetInCU: 0xF7FC, offset: 0xF7FC, size: 0x8, addend: 0x0, symName: __ZNSt3__16vectorINS0_IcNS_9allocatorIcEEEENS1_IS3_EEEC2EmRKS3_, symObjAddr: 0x29D0, symBinAddr: 0x1000036F0, symSize: 0xE0 }
  - { offsetInCU: 0xF85A, offset: 0xF85A, size: 0x8, addend: 0x0, symName: __ZNSt3__117__compressed_pairIPNS_6vectorIcNS_9allocatorIcEEEENS2_IS4_EEEC1B8ue170006IDnNS_18__default_init_tagEEEOT_OT0_, symObjAddr: 0x2AB0, symBinAddr: 0x1000037D0, symSize: 0x30 }
  - { offsetInCU: 0xF8B1, offset: 0xF8B1, size: 0x8, addend: 0x0, symName: __ZNSt3__16vectorINS0_IcNS_9allocatorIcEEEENS1_IS3_EEE16__destroy_vectorC1B8ue170006ERS5_, symObjAddr: 0x2B20, symBinAddr: 0x100003840, symSize: 0x30 }
  - { offsetInCU: 0xF8E9, offset: 0xF8E9, size: 0x8, addend: 0x0, symName: __ZNSt3__16vectorINS0_IcNS_9allocatorIcEEEENS1_IS3_EEE11__vallocateB8ue170006Em, symObjAddr: 0x2B50, symBinAddr: 0x100003870, symSize: 0xA0 }
  - { offsetInCU: 0xF92B, offset: 0xF92B, size: 0x8, addend: 0x0, symName: __ZNSt3__16vectorINS0_IcNS_9allocatorIcEEEENS1_IS3_EEE18__construct_at_endEmRKS3_, symObjAddr: 0x2BF0, symBinAddr: 0x100003910, symSize: 0xC0 }
  - { offsetInCU: 0xF9AC, offset: 0xF9AC, size: 0x8, addend: 0x0, symName: __ZNSt3__128__exception_guard_exceptionsINS_6vectorINS1_IcNS_9allocatorIcEEEENS2_IS4_EEE16__destroy_vectorEE10__completeB8ue170006Ev, symObjAddr: 0x2CB0, symBinAddr: 0x1000039D0, symSize: 0x20 }
  - { offsetInCU: 0xF9D1, offset: 0xF9D1, size: 0x8, addend: 0x0, symName: __ZNSt3__128__exception_guard_exceptionsINS_6vectorINS1_IcNS_9allocatorIcEEEENS2_IS4_EEE16__destroy_vectorEED1B8ue170006Ev, symObjAddr: 0x2CD0, symBinAddr: 0x1000039F0, symSize: 0x20 }
  - { offsetInCU: 0xF9FA, offset: 0xF9FA, size: 0x8, addend: 0x0, symName: __ZNSt3__117__compressed_pairIPNS_6vectorIcNS_9allocatorIcEEEENS2_IS4_EEEC2B8ue170006IDnNS_18__default_init_tagEEEOT_OT0_, symObjAddr: 0x2CF0, symBinAddr: 0x100003A10, symSize: 0x40 }
  - { offsetInCU: 0xFA51, offset: 0xFA51, size: 0x8, addend: 0x0, symName: __ZNSt3__122__compressed_pair_elemIPNS_6vectorIcNS_9allocatorIcEEEELi0ELb0EEC2B8ue170006IDnvEEOT_, symObjAddr: 0x2D30, symBinAddr: 0x100003A50, symSize: 0x20 }
  - { offsetInCU: 0xFA92, offset: 0xFA92, size: 0x8, addend: 0x0, symName: __ZNSt3__122__compressed_pair_elemINS_9allocatorINS_6vectorIcNS1_IcEEEEEELi1ELb1EEC2B8ue170006ENS_18__default_init_tagE, symObjAddr: 0x2D50, symBinAddr: 0x100003A70, symSize: 0x20 }
  - { offsetInCU: 0xFAC5, offset: 0xFAC5, size: 0x8, addend: 0x0, symName: __ZNSt3__19allocatorINS_6vectorIcNS0_IcEEEEEC2B8ue170006Ev, symObjAddr: 0x2D70, symBinAddr: 0x100003A90, symSize: 0x20 }
  - { offsetInCU: 0xFAEE, offset: 0xFAEE, size: 0x8, addend: 0x0, symName: __ZNSt3__116__non_trivial_ifILb1ENS_9allocatorINS_6vectorIcNS1_IcEEEEEEEC2B8ue170006Ev, symObjAddr: 0x2D90, symBinAddr: 0x100003AB0, symSize: 0x10 }
  - { offsetInCU: 0xFB17, offset: 0xFB17, size: 0x8, addend: 0x0, symName: __ZNSt3__128__exception_guard_exceptionsINS_6vectorINS1_IcNS_9allocatorIcEEEENS2_IS4_EEE16__destroy_vectorEEC1B8ue170006ES7_, symObjAddr: 0x2DA0, symBinAddr: 0x100003AC0, symSize: 0x30 }
  - { offsetInCU: 0xFB4E, offset: 0xFB4E, size: 0x8, addend: 0x0, symName: __ZNSt3__128__exception_guard_exceptionsINS_6vectorINS1_IcNS_9allocatorIcEEEENS2_IS4_EEE16__destroy_vectorEEC2B8ue170006ES7_, symObjAddr: 0x2DD0, symBinAddr: 0x100003AF0, symSize: 0x20 }
  - { offsetInCU: 0xFB85, offset: 0xFB85, size: 0x8, addend: 0x0, symName: __ZNSt3__16vectorINS0_IcNS_9allocatorIcEEEENS1_IS3_EEE16__destroy_vectorC2B8ue170006ERS5_, symObjAddr: 0x2DF0, symBinAddr: 0x100003B10, symSize: 0x20 }
  - { offsetInCU: 0xFBBC, offset: 0xFBBC, size: 0x8, addend: 0x0, symName: __ZNKSt3__16vectorINS0_IcNS_9allocatorIcEEEENS1_IS3_EEE8max_sizeEv, symObjAddr: 0x2E10, symBinAddr: 0x100003B30, symSize: 0x60 }
  - { offsetInCU: 0xFBE3, offset: 0xFBE3, size: 0x8, addend: 0x0, symName: __ZNKSt3__16vectorINS0_IcNS_9allocatorIcEEEENS1_IS3_EEE20__throw_length_errorB8ue170006Ev, symObjAddr: 0x2E70, symBinAddr: 0x100003B90, symSize: 0x20 }
  - { offsetInCU: 0xFC08, offset: 0xFC08, size: 0x8, addend: 0x0, symName: __ZNSt3__16vectorINS0_IcNS_9allocatorIcEEEENS1_IS3_EEE7__allocB8ue170006Ev, symObjAddr: 0x2ED0, symBinAddr: 0x100003BF0, symSize: 0x20 }
  - { offsetInCU: 0xFC2D, offset: 0xFC2D, size: 0x8, addend: 0x0, symName: __ZNSt3__16vectorINS0_IcNS_9allocatorIcEEEENS1_IS3_EEE9__end_capB8ue170006Ev, symObjAddr: 0x2EF0, symBinAddr: 0x100003C10, symSize: 0x20 }
  - { offsetInCU: 0xFC52, offset: 0xFC52, size: 0x8, addend: 0x0, symName: __ZNKSt3__16vectorINS0_IcNS_9allocatorIcEEEENS1_IS3_EEE14__annotate_newB8ue170006Em, symObjAddr: 0x2F10, symBinAddr: 0x100003C30, symSize: 0xA0 }
  - { offsetInCU: 0xFC90, offset: 0xFC90, size: 0x8, addend: 0x0, symName: __ZNSt3__116allocator_traitsINS_9allocatorINS_6vectorIcNS1_IcEEEEEEE8max_sizeB8ue170006IS5_vEEmRKS5_, symObjAddr: 0x2FB0, symBinAddr: 0x100003CD0, symSize: 0x20 }
  - { offsetInCU: 0xFCBE, offset: 0xFCBE, size: 0x8, addend: 0x0, symName: __ZNKSt3__16vectorINS0_IcNS_9allocatorIcEEEENS1_IS3_EEE7__allocB8ue170006Ev, symObjAddr: 0x2FD0, symBinAddr: 0x100003CF0, symSize: 0x20 }
  - { offsetInCU: 0xFCE3, offset: 0xFCE3, size: 0x8, addend: 0x0, symName: __ZNKSt3__19allocatorINS_6vectorIcNS0_IcEEEEE8max_sizeB8ue170006Ev, symObjAddr: 0x2FF0, symBinAddr: 0x100003D10, symSize: 0x20 }
  - { offsetInCU: 0xFD08, offset: 0xFD08, size: 0x8, addend: 0x0, symName: __ZNKSt3__117__compressed_pairIPNS_6vectorIcNS_9allocatorIcEEEENS2_IS4_EEE6secondB8ue170006Ev, symObjAddr: 0x3010, symBinAddr: 0x100003D30, symSize: 0x20 }
  - { offsetInCU: 0xFD2D, offset: 0xFD2D, size: 0x8, addend: 0x0, symName: __ZNKSt3__122__compressed_pair_elemINS_9allocatorINS_6vectorIcNS1_IcEEEEEELi1ELb1EE5__getB8ue170006Ev, symObjAddr: 0x3030, symBinAddr: 0x100003D50, symSize: 0x10 }
  - { offsetInCU: 0xFD52, offset: 0xFD52, size: 0x8, addend: 0x0, symName: __ZNSt3__19allocatorINS_6vectorIcNS0_IcEEEEE8allocateB8ue170006Em, symObjAddr: 0x3040, symBinAddr: 0x100003D60, symSize: 0x50 }
  - { offsetInCU: 0xFD85, offset: 0xFD85, size: 0x8, addend: 0x0, symName: __ZNSt3__117__compressed_pairIPNS_6vectorIcNS_9allocatorIcEEEENS2_IS4_EEE6secondB8ue170006Ev, symObjAddr: 0x3090, symBinAddr: 0x100003DB0, symSize: 0x20 }
  - { offsetInCU: 0xFDAA, offset: 0xFDAA, size: 0x8, addend: 0x0, symName: __ZNSt3__122__compressed_pair_elemINS_9allocatorINS_6vectorIcNS1_IcEEEEEELi1ELb1EE5__getB8ue170006Ev, symObjAddr: 0x30B0, symBinAddr: 0x100003DD0, symSize: 0x10 }
  - { offsetInCU: 0xFDCF, offset: 0xFDCF, size: 0x8, addend: 0x0, symName: __ZNSt3__117__compressed_pairIPNS_6vectorIcNS_9allocatorIcEEEENS2_IS4_EEE5firstB8ue170006Ev, symObjAddr: 0x30C0, symBinAddr: 0x100003DE0, symSize: 0x20 }
  - { offsetInCU: 0xFDF4, offset: 0xFDF4, size: 0x8, addend: 0x0, symName: __ZNSt3__122__compressed_pair_elemIPNS_6vectorIcNS_9allocatorIcEEEELi0ELb0EE5__getB8ue170006Ev, symObjAddr: 0x30E0, symBinAddr: 0x100003E00, symSize: 0x10 }
  - { offsetInCU: 0xFE19, offset: 0xFE19, size: 0x8, addend: 0x0, symName: __ZNKSt3__16vectorINS0_IcNS_9allocatorIcEEEENS1_IS3_EEE31__annotate_contiguous_containerB8ue170006EPKvS7_S7_S7_, symObjAddr: 0x30F0, symBinAddr: 0x100003E10, symSize: 0x20 }
  - { offsetInCU: 0xFE6A, offset: 0xFE6A, size: 0x8, addend: 0x0, symName: __ZNKSt3__16vectorINS0_IcNS_9allocatorIcEEEENS1_IS3_EEE4dataB8ue170006Ev, symObjAddr: 0x3110, symBinAddr: 0x100003E30, symSize: 0x20 }
  - { offsetInCU: 0xFE8F, offset: 0xFE8F, size: 0x8, addend: 0x0, symName: __ZNKSt3__16vectorINS0_IcNS_9allocatorIcEEEENS1_IS3_EEE8capacityB8ue170006Ev, symObjAddr: 0x3130, symBinAddr: 0x100003E50, symSize: 0x40 }
  - { offsetInCU: 0xFEB4, offset: 0xFEB4, size: 0x8, addend: 0x0, symName: __ZNKSt3__16vectorINS0_IcNS_9allocatorIcEEEENS1_IS3_EEE9__end_capB8ue170006Ev, symObjAddr: 0x3180, symBinAddr: 0x100003EA0, symSize: 0x20 }
  - { offsetInCU: 0xFED9, offset: 0xFED9, size: 0x8, addend: 0x0, symName: __ZNKSt3__117__compressed_pairIPNS_6vectorIcNS_9allocatorIcEEEENS2_IS4_EEE5firstB8ue170006Ev, symObjAddr: 0x31A0, symBinAddr: 0x100003EC0, symSize: 0x20 }
  - { offsetInCU: 0xFEFE, offset: 0xFEFE, size: 0x8, addend: 0x0, symName: __ZNKSt3__122__compressed_pair_elemIPNS_6vectorIcNS_9allocatorIcEEEELi0ELb0EE5__getB8ue170006Ev, symObjAddr: 0x31C0, symBinAddr: 0x100003EE0, symSize: 0x10 }
  - { offsetInCU: 0xFF3C, offset: 0xFF3C, size: 0x8, addend: 0x0, symName: __ZNSt3__16vectorINS0_IcNS_9allocatorIcEEEENS1_IS3_EEE21_ConstructTransactionC1B8ue170006ERS5_m, symObjAddr: 0x31D0, symBinAddr: 0x100003EF0, symSize: 0x30 }
  - { offsetInCU: 0xFF83, offset: 0xFF83, size: 0x8, addend: 0x0, symName: __ZNSt3__116allocator_traitsINS_9allocatorINS_6vectorIcNS1_IcEEEEEEE9constructB8ue170006IS4_JRKS4_EvEEvRS5_PT_DpOT0_, symObjAddr: 0x3200, symBinAddr: 0x100003F20, symSize: 0x30 }
  - { offsetInCU: 0xFFDA, offset: 0xFFDA, size: 0x8, addend: 0x0, symName: __ZNSt3__16vectorINS0_IcNS_9allocatorIcEEEENS1_IS3_EEE21_ConstructTransactionD1B8ue170006Ev, symObjAddr: 0x3230, symBinAddr: 0x100003F50, symSize: 0x20 }
  - { offsetInCU: 0x10003, offset: 0x10003, size: 0x8, addend: 0x0, symName: __ZNSt3__16vectorINS0_IcNS_9allocatorIcEEEENS1_IS3_EEE21_ConstructTransactionC2B8ue170006ERS5_m, symObjAddr: 0x3250, symBinAddr: 0x100003F70, symSize: 0x40 }
  - { offsetInCU: 0x1004A, offset: 0x1004A, size: 0x8, addend: 0x0, symName: __ZNSt3__19allocatorINS_6vectorIcNS0_IcEEEEE9constructB8ue170006IS3_JRKS3_EEEvPT_DpOT0_, symObjAddr: 0x3290, symBinAddr: 0x100003FB0, symSize: 0x30 }
  - { offsetInCU: 0x1009F, offset: 0x1009F, size: 0x8, addend: 0x0, symName: __ZNSt3__16vectorIcNS_9allocatorIcEEEC1ERKS3_, symObjAddr: 0x32C0, symBinAddr: 0x100003FE0, symSize: 0x30 }
  - { offsetInCU: 0x100D9, offset: 0x100D9, size: 0x8, addend: 0x0, symName: __ZNSt3__16vectorIcNS_9allocatorIcEEEC2ERKS3_, symObjAddr: 0x32F0, symBinAddr: 0x100004010, symSize: 0xA0 }
  - { offsetInCU: 0x10113, offset: 0x10113, size: 0x8, addend: 0x0, symName: __ZNSt3__116allocator_traitsINS_9allocatorIcEEE37select_on_container_copy_constructionB8ue170006IS2_vvEES2_RKS2_, symObjAddr: 0x3390, symBinAddr: 0x1000040B0, symSize: 0x10 }
  - { offsetInCU: 0x10147, offset: 0x10147, size: 0x8, addend: 0x0, symName: __ZNSt3__117__compressed_pairIPcNS_9allocatorIcEEEC1B8ue170006IDnS3_EEOT_OT0_, symObjAddr: 0x33A0, symBinAddr: 0x1000040C0, symSize: 0x30 }
  - { offsetInCU: 0x1019E, offset: 0x1019E, size: 0x8, addend: 0x0, symName: __ZNSt3__16vectorIcNS_9allocatorIcEEE16__init_with_sizeB8ue170006IPcS5_EEvT_T0_m, symObjAddr: 0x33D0, symBinAddr: 0x1000040F0, symSize: 0xB0 }
  - { offsetInCU: 0x10211, offset: 0x10211, size: 0x8, addend: 0x0, symName: __ZNSt3__117__compressed_pairIPcNS_9allocatorIcEEEC2B8ue170006IDnS3_EEOT_OT0_, symObjAddr: 0x3480, symBinAddr: 0x1000041A0, symSize: 0x40 }
  - { offsetInCU: 0x10268, offset: 0x10268, size: 0x8, addend: 0x0, symName: __ZNSt3__122__compressed_pair_elemINS_9allocatorIcEELi1ELb1EEC2B8ue170006IS2_vEEOT_, symObjAddr: 0x34C0, symBinAddr: 0x1000041E0, symSize: 0x10 }
  - { offsetInCU: 0x102A8, offset: 0x102A8, size: 0x8, addend: 0x0, symName: __ZNSt3__16vectorIcNS_9allocatorIcEEE18__construct_at_endIPcS5_EEvT_T0_m, symObjAddr: 0x34D0, symBinAddr: 0x1000041F0, symSize: 0x90 }
  - { offsetInCU: 0x1033B, offset: 0x1033B, size: 0x8, addend: 0x0, symName: __ZNSt3__14pairIPcS1_EC1B8ue170006IS1_S1_LPv0EEEOT_OT0_, symObjAddr: 0x36F0, symBinAddr: 0x100004410, symSize: 0x30 }
  - { offsetInCU: 0x10398, offset: 0x10398, size: 0x8, addend: 0x0, symName: __ZNSt3__14pairIPcS1_EC2B8ue170006IS1_S1_LPv0EEEOT_OT0_, symObjAddr: 0x3720, symBinAddr: 0x100004440, symSize: 0x30 }
  - { offsetInCU: 0x103FF, offset: 0x103FF, size: 0x8, addend: 0x0, symName: __ZNKSt3__114__copy_trivialclB8ue170006IccLi0EEENS_4pairIPT_PT0_EES4_S4_S6_, symObjAddr: 0x38C0, symBinAddr: 0x1000045E0, symSize: 0x40 }
  - { offsetInCU: 0x10466, offset: 0x10466, size: 0x8, addend: 0x0, symName: __ZNSt3__14pairIPcS1_EC1B8ue170006IRS1_S1_LPv0EEEOT_OT0_, symObjAddr: 0x3A20, symBinAddr: 0x100004740, symSize: 0x30 }
  - { offsetInCU: 0x104C3, offset: 0x104C3, size: 0x8, addend: 0x0, symName: __ZNSt3__14pairIPcS1_EC2B8ue170006IRS1_S1_LPv0EEEOT_OT0_, symObjAddr: 0x3A50, symBinAddr: 0x100004770, symSize: 0x30 }
  - { offsetInCU: 0x10520, offset: 0x10520, size: 0x8, addend: 0x0, symName: __ZNSt3__118__unwrap_iter_implIPcLb1EE8__unwrapB8ue170006ES1_, symObjAddr: 0x3A80, symBinAddr: 0x1000047A0, symSize: 0x20 }
  - { offsetInCU: 0x10543, offset: 0x10543, size: 0x8, addend: 0x0, symName: __ZNSt3__118__unwrap_iter_implIPcLb1EE8__rewrapB8ue170006ES1_S1_, symObjAddr: 0x3AA0, symBinAddr: 0x1000047C0, symSize: 0x40 }
  - { offsetInCU: 0x10574, offset: 0x10574, size: 0x8, addend: 0x0, symName: __ZNSt3__16vectorINS0_IcNS_9allocatorIcEEEENS1_IS3_EEE21_ConstructTransactionD2B8ue170006Ev, symObjAddr: 0x3AE0, symBinAddr: 0x100004800, symSize: 0x20 }
  - { offsetInCU: 0x1059D, offset: 0x1059D, size: 0x8, addend: 0x0, symName: __ZNSt3__128__exception_guard_exceptionsINS_6vectorINS1_IcNS_9allocatorIcEEEENS2_IS4_EEE16__destroy_vectorEED2B8ue170006Ev, symObjAddr: 0x3B00, symBinAddr: 0x100004820, symSize: 0x40 }
  - { offsetInCU: 0x105C6, offset: 0x105C6, size: 0x8, addend: 0x0, symName: __ZNSt3__16vectorINS0_IcNS_9allocatorIcEEEENS1_IS3_EEE16__destroy_vectorclB8ue170006Ev, symObjAddr: 0x3B40, symBinAddr: 0x100004860, symSize: 0x80 }
  - { offsetInCU: 0x105EB, offset: 0x105EB, size: 0x8, addend: 0x0, symName: __ZNSt3__16vectorINS0_IcNS_9allocatorIcEEEENS1_IS3_EEE7__clearB8ue170006Ev, symObjAddr: 0x3BC0, symBinAddr: 0x1000048E0, symSize: 0x20 }
  - { offsetInCU: 0x10610, offset: 0x10610, size: 0x8, addend: 0x0, symName: __ZNKSt3__16vectorINS0_IcNS_9allocatorIcEEEENS1_IS3_EEE17__annotate_deleteB8ue170006Ev, symObjAddr: 0x3BE0, symBinAddr: 0x100004900, symSize: 0xB0 }
  - { offsetInCU: 0x10635, offset: 0x10635, size: 0x8, addend: 0x0, symName: __ZNSt3__116allocator_traitsINS_9allocatorINS_6vectorIcNS1_IcEEEEEEE10deallocateB8ue170006ERS5_PS4_m, symObjAddr: 0x3C90, symBinAddr: 0x1000049B0, symSize: 0x30 }
  - { offsetInCU: 0x10677, offset: 0x10677, size: 0x8, addend: 0x0, symName: __ZNSt3__16vectorINS0_IcNS_9allocatorIcEEEENS1_IS3_EEE22__base_destruct_at_endB8ue170006EPS3_, symObjAddr: 0x3CC0, symBinAddr: 0x1000049E0, symSize: 0x80 }
  - { offsetInCU: 0x106BA, offset: 0x106BA, size: 0x8, addend: 0x0, symName: __ZNSt3__116allocator_traitsINS_9allocatorINS_6vectorIcNS1_IcEEEEEEE7destroyB8ue170006IS4_vEEvRS5_PT_, symObjAddr: 0x3D40, symBinAddr: 0x100004A60, symSize: 0x30 }
  - { offsetInCU: 0x106F7, offset: 0x106F7, size: 0x8, addend: 0x0, symName: __ZNSt3__19allocatorINS_6vectorIcNS0_IcEEEEE7destroyB8ue170006EPS3_, symObjAddr: 0x3D70, symBinAddr: 0x100004A90, symSize: 0x20 }
  - { offsetInCU: 0x1072A, offset: 0x1072A, size: 0x8, addend: 0x0, symName: __ZNKSt3__16vectorINS0_IcNS_9allocatorIcEEEENS1_IS3_EEE4sizeB8ue170006Ev, symObjAddr: 0x3D90, symBinAddr: 0x100004AB0, symSize: 0x30 }
  - { offsetInCU: 0x1074F, offset: 0x1074F, size: 0x8, addend: 0x0, symName: __ZNSt3__19allocatorINS_6vectorIcNS0_IcEEEEE10deallocateB8ue170006EPS3_m, symObjAddr: 0x3DC0, symBinAddr: 0x100004AE0, symSize: 0x50 }
  - { offsetInCU: 0x10790, offset: 0x10790, size: 0x8, addend: 0x0, symName: __ZNSt3__16vectorINS0_IcNS_9allocatorIcEEEENS1_IS3_EEED2B8ue170006Ev, symObjAddr: 0x3E10, symBinAddr: 0x100004B30, symSize: 0x40 }
  - { offsetInCU: 0x107B9, offset: 0x107B9, size: 0x8, addend: 0x0, symName: __ZNSt3__111char_traitsIcE6lengthB8ue170006EPKc, symObjAddr: 0x4040, symBinAddr: 0x100004D60, symSize: 0x30 }
  - { offsetInCU: 0x107FA, offset: 0x107FA, size: 0x8, addend: 0x0, symName: __ZNKSt3__113basic_ostreamIcNS_11char_traitsIcEEE6sentrycvbB8ue170006Ev, symObjAddr: 0x4070, symBinAddr: 0x100004D90, symSize: 0x20 }
  - { offsetInCU: 0x1081F, offset: 0x1081F, size: 0x8, addend: 0x0, symName: __ZNSt3__119ostreambuf_iteratorIcNS_11char_traitsIcEEEC1B8ue170006ERNS_13basic_ostreamIcS2_EE, symObjAddr: 0x42B0, symBinAddr: 0x100004FD0, symSize: 0x30 }
  - { offsetInCU: 0x10855, offset: 0x10855, size: 0x8, addend: 0x0, symName: __ZNKSt3__18ios_base5flagsB8ue170006Ev, symObjAddr: 0x42E0, symBinAddr: 0x100005000, symSize: 0x20 }
  - { offsetInCU: 0x1087B, offset: 0x1087B, size: 0x8, addend: 0x0, symName: __ZNKSt3__19basic_iosIcNS_11char_traitsIcEEE4fillB8ue170006Ev, symObjAddr: 0x4300, symBinAddr: 0x100005020, symSize: 0x70 }
  - { offsetInCU: 0x108A2, offset: 0x108A2, size: 0x8, addend: 0x0, symName: __ZNKSt3__119ostreambuf_iteratorIcNS_11char_traitsIcEEE6failedB8ue170006Ev, symObjAddr: 0x4370, symBinAddr: 0x100005090, symSize: 0x20 }
  - { offsetInCU: 0x108C7, offset: 0x108C7, size: 0x8, addend: 0x0, symName: __ZNSt3__19basic_iosIcNS_11char_traitsIcEEE8setstateB8ue170006Ej, symObjAddr: 0x4390, symBinAddr: 0x1000050B0, symSize: 0x30 }
  - { offsetInCU: 0x108FA, offset: 0x108FA, size: 0x8, addend: 0x0, symName: __ZNKSt3__18ios_base5widthB8ue170006Ev, symObjAddr: 0x43C0, symBinAddr: 0x1000050E0, symSize: 0x20 }
  - { offsetInCU: 0x10921, offset: 0x10921, size: 0x8, addend: 0x0, symName: __ZNSt3__115basic_streambufIcNS_11char_traitsIcEEE5sputnB8ue170006EPKcl, symObjAddr: 0x43E0, symBinAddr: 0x100005100, symSize: 0x30 }
  - { offsetInCU: 0x10962, offset: 0x10962, size: 0x8, addend: 0x0, symName: __ZNSt3__112basic_stringIcNS_11char_traitsIcEENS_9allocatorIcEEEC1B8ue170006Emc, symObjAddr: 0x4410, symBinAddr: 0x100005130, symSize: 0x30 }
  - { offsetInCU: 0x109A9, offset: 0x109A9, size: 0x8, addend: 0x0, symName: __ZNKSt3__112basic_stringIcNS_11char_traitsIcEENS_9allocatorIcEEE4dataB8ue170006Ev, symObjAddr: 0x4440, symBinAddr: 0x100005160, symSize: 0x30 }
  - { offsetInCU: 0x109CD, offset: 0x109CD, size: 0x8, addend: 0x0, symName: __ZNSt3__18ios_base5widthB8ue170006El, symObjAddr: 0x4470, symBinAddr: 0x100005190, symSize: 0x30 }
  - { offsetInCU: 0x10A12, offset: 0x10A12, size: 0x8, addend: 0x0, symName: __ZNSt3__112basic_stringIcNS_11char_traitsIcEENS_9allocatorIcEEEC2B8ue170006Emc, symObjAddr: 0x44A0, symBinAddr: 0x1000051C0, symSize: 0x50 }
  - { offsetInCU: 0x10A59, offset: 0x10A59, size: 0x8, addend: 0x0, symName: __ZNSt3__117__compressed_pairINS_12basic_stringIcNS_11char_traitsIcEENS_9allocatorIcEEE5__repES5_EC1B8ue170006INS_18__default_init_tagESA_EEOT_OT0_, symObjAddr: 0x44F0, symBinAddr: 0x100005210, symSize: 0x30 }
  - { offsetInCU: 0x10AB0, offset: 0x10AB0, size: 0x8, addend: 0x0, symName: __ZNSt3__117__compressed_pairINS_12basic_stringIcNS_11char_traitsIcEENS_9allocatorIcEEE5__repES5_EC2B8ue170006INS_18__default_init_tagESA_EEOT_OT0_, symObjAddr: 0x4520, symBinAddr: 0x100005240, symSize: 0x30 }
  - { offsetInCU: 0x10B07, offset: 0x10B07, size: 0x8, addend: 0x0, symName: __ZNSt3__122__compressed_pair_elemINS_12basic_stringIcNS_11char_traitsIcEENS_9allocatorIcEEE5__repELi0ELb0EEC2B8ue170006ENS_18__default_init_tagE, symObjAddr: 0x4550, symBinAddr: 0x100005270, symSize: 0x10 }
  - { offsetInCU: 0x10B3A, offset: 0x10B3A, size: 0x8, addend: 0x0, symName: __ZNKSt3__112basic_stringIcNS_11char_traitsIcEENS_9allocatorIcEEE13__get_pointerB8ue170006Ev, symObjAddr: 0x4570, symBinAddr: 0x100005290, symSize: 0x50 }
  - { offsetInCU: 0x10B5F, offset: 0x10B5F, size: 0x8, addend: 0x0, symName: __ZNKSt3__112basic_stringIcNS_11char_traitsIcEENS_9allocatorIcEEE9__is_longB8ue170006Ev, symObjAddr: 0x45C0, symBinAddr: 0x1000052E0, symSize: 0x30 }
  - { offsetInCU: 0x10B84, offset: 0x10B84, size: 0x8, addend: 0x0, symName: __ZNKSt3__112basic_stringIcNS_11char_traitsIcEENS_9allocatorIcEEE18__get_long_pointerB8ue170006Ev, symObjAddr: 0x45F0, symBinAddr: 0x100005310, symSize: 0x20 }
  - { offsetInCU: 0x10BA9, offset: 0x10BA9, size: 0x8, addend: 0x0, symName: __ZNKSt3__112basic_stringIcNS_11char_traitsIcEENS_9allocatorIcEEE19__get_short_pointerB8ue170006Ev, symObjAddr: 0x4610, symBinAddr: 0x100005330, symSize: 0x30 }
  - { offsetInCU: 0x10BCE, offset: 0x10BCE, size: 0x8, addend: 0x0, symName: __ZNKSt3__117__compressed_pairINS_12basic_stringIcNS_11char_traitsIcEENS_9allocatorIcEEE5__repES5_E5firstB8ue170006Ev, symObjAddr: 0x4640, symBinAddr: 0x100005360, symSize: 0x20 }
  - { offsetInCU: 0x10BF3, offset: 0x10BF3, size: 0x8, addend: 0x0, symName: __ZNKSt3__122__compressed_pair_elemINS_12basic_stringIcNS_11char_traitsIcEENS_9allocatorIcEEE5__repELi0ELb0EE5__getB8ue170006Ev, symObjAddr: 0x4660, symBinAddr: 0x100005380, symSize: 0x10 }
  - { offsetInCU: 0x10C18, offset: 0x10C18, size: 0x8, addend: 0x0, symName: __ZNSt3__114pointer_traitsIPKcE10pointer_toB8ue170006ERS1_, symObjAddr: 0x4670, symBinAddr: 0x100005390, symSize: 0x10 }
  - { offsetInCU: 0x10C3B, offset: 0x10C3B, size: 0x8, addend: 0x0, symName: __ZNSt3__119ostreambuf_iteratorIcNS_11char_traitsIcEEEC2B8ue170006ERNS_13basic_ostreamIcS2_EE, symObjAddr: 0x4680, symBinAddr: 0x1000053A0, symSize: 0x50 }
  - { offsetInCU: 0x10C71, offset: 0x10C71, size: 0x8, addend: 0x0, symName: __ZNKSt3__19basic_iosIcNS_11char_traitsIcEEE5rdbufB8ue170006Ev, symObjAddr: 0x46D0, symBinAddr: 0x1000053F0, symSize: 0x20 }
  - { offsetInCU: 0x10C98, offset: 0x10C98, size: 0x8, addend: 0x0, symName: __ZNKSt3__18ios_base5rdbufB8ue170006Ev, symObjAddr: 0x46F0, symBinAddr: 0x100005410, symSize: 0x20 }
  - { offsetInCU: 0x10CBD, offset: 0x10CBD, size: 0x8, addend: 0x0, symName: __ZNSt3__111char_traitsIcE11eq_int_typeB8ue170006Eii, symObjAddr: 0x4710, symBinAddr: 0x100005430, symSize: 0x20 }
  - { offsetInCU: 0x10CF0, offset: 0x10CF0, size: 0x8, addend: 0x0, symName: __ZNSt3__111char_traitsIcE3eofB8ue170006Ev, symObjAddr: 0x4730, symBinAddr: 0x100005450, symSize: 0x10 }
  - { offsetInCU: 0x10D03, offset: 0x10D03, size: 0x8, addend: 0x0, symName: __ZNKSt3__19basic_iosIcNS_11char_traitsIcEEE5widenB8ue170006Ec, symObjAddr: 0x4740, symBinAddr: 0x100005460, symSize: 0x80 }
  - { offsetInCU: 0x10D6B, offset: 0x10D6B, size: 0x8, addend: 0x0, symName: __ZNKSt3__15ctypeIcE5widenB8ue170006Ec, symObjAddr: 0x47F0, symBinAddr: 0x100005510, symSize: 0x30 }
  - { offsetInCU: 0x10D9E, offset: 0x10D9E, size: 0x8, addend: 0x0, symName: __ZNSt3__18ios_base8setstateB8ue170006Ej, symObjAddr: 0x4820, symBinAddr: 0x100005540, symSize: 0x30 }
  - { offsetInCU: 0x10DD4, offset: 0x10DD4, size: 0x8, addend: 0x0, symName: __ZNSt3__16vectorINS_4pairIiiEENS_9allocatorIS2_EEEC2B8ue170006Ev, symObjAddr: 0x4870, symBinAddr: 0x100005590, symSize: 0x50 }
  - { offsetInCU: 0x10DFD, offset: 0x10DFD, size: 0x8, addend: 0x0, symName: __ZNSt3__117__compressed_pairIPNS_4pairIiiEENS_9allocatorIS2_EEEC1B8ue170006IDnNS_18__default_init_tagEEEOT_OT0_, symObjAddr: 0x48C0, symBinAddr: 0x1000055E0, symSize: 0x30 }
  - { offsetInCU: 0x10E54, offset: 0x10E54, size: 0x8, addend: 0x0, symName: __ZNSt3__117__compressed_pairIPNS_4pairIiiEENS_9allocatorIS2_EEEC2B8ue170006IDnNS_18__default_init_tagEEEOT_OT0_, symObjAddr: 0x48F0, symBinAddr: 0x100005610, symSize: 0x40 }
  - { offsetInCU: 0x10EAB, offset: 0x10EAB, size: 0x8, addend: 0x0, symName: __ZNSt3__122__compressed_pair_elemIPNS_4pairIiiEELi0ELb0EEC2B8ue170006IDnvEEOT_, symObjAddr: 0x4930, symBinAddr: 0x100005650, symSize: 0x20 }
  - { offsetInCU: 0x10EEC, offset: 0x10EEC, size: 0x8, addend: 0x0, symName: __ZNSt3__122__compressed_pair_elemINS_9allocatorINS_4pairIiiEEEELi1ELb1EEC2B8ue170006ENS_18__default_init_tagE, symObjAddr: 0x4950, symBinAddr: 0x100005670, symSize: 0x20 }
  - { offsetInCU: 0x10F1F, offset: 0x10F1F, size: 0x8, addend: 0x0, symName: __ZNSt3__19allocatorINS_4pairIiiEEEC2B8ue170006Ev, symObjAddr: 0x4970, symBinAddr: 0x100005690, symSize: 0x20 }
  - { offsetInCU: 0x10F48, offset: 0x10F48, size: 0x8, addend: 0x0, symName: __ZNSt3__116__non_trivial_ifILb1ENS_9allocatorINS_4pairIiiEEEEEC2B8ue170006Ev, symObjAddr: 0x4990, symBinAddr: 0x1000056B0, symSize: 0x10 }
  - { offsetInCU: 0x10F71, offset: 0x10F71, size: 0x8, addend: 0x0, symName: __ZNSt3__16vectorINS_4pairIiiEENS_9allocatorIS2_EEED2B8ue170006Ev, symObjAddr: 0x49A0, symBinAddr: 0x1000056C0, symSize: 0x40 }
  - { offsetInCU: 0x10F9A, offset: 0x10F9A, size: 0x8, addend: 0x0, symName: __ZNSt3__16vectorINS_4pairIiiEENS_9allocatorIS2_EEE16__destroy_vectorC1B8ue170006ERS5_, symObjAddr: 0x49E0, symBinAddr: 0x100005700, symSize: 0x30 }
  - { offsetInCU: 0x10FD2, offset: 0x10FD2, size: 0x8, addend: 0x0, symName: __ZNSt3__16vectorINS_4pairIiiEENS_9allocatorIS2_EEE16__destroy_vectorclB8ue170006Ev, symObjAddr: 0x4A10, symBinAddr: 0x100005730, symSize: 0x80 }
  - { offsetInCU: 0x10FF7, offset: 0x10FF7, size: 0x8, addend: 0x0, symName: __ZNSt3__16vectorINS_4pairIiiEENS_9allocatorIS2_EEE16__destroy_vectorC2B8ue170006ERS5_, symObjAddr: 0x4A90, symBinAddr: 0x1000057B0, symSize: 0x20 }
  - { offsetInCU: 0x1102F, offset: 0x1102F, size: 0x8, addend: 0x0, symName: __ZNSt3__16vectorINS_4pairIiiEENS_9allocatorIS2_EEE7__clearB8ue170006Ev, symObjAddr: 0x4AB0, symBinAddr: 0x1000057D0, symSize: 0x20 }
  - { offsetInCU: 0x11054, offset: 0x11054, size: 0x8, addend: 0x0, symName: __ZNKSt3__16vectorINS_4pairIiiEENS_9allocatorIS2_EEE17__annotate_deleteB8ue170006Ev, symObjAddr: 0x4AD0, symBinAddr: 0x1000057F0, symSize: 0xB0 }
  - { offsetInCU: 0x11079, offset: 0x11079, size: 0x8, addend: 0x0, symName: __ZNSt3__116allocator_traitsINS_9allocatorINS_4pairIiiEEEEE10deallocateB8ue170006ERS4_PS3_m, symObjAddr: 0x4B80, symBinAddr: 0x1000058A0, symSize: 0x30 }
  - { offsetInCU: 0x110BB, offset: 0x110BB, size: 0x8, addend: 0x0, symName: __ZNSt3__16vectorINS_4pairIiiEENS_9allocatorIS2_EEE7__allocB8ue170006Ev, symObjAddr: 0x4BB0, symBinAddr: 0x1000058D0, symSize: 0x20 }
  - { offsetInCU: 0x110E0, offset: 0x110E0, size: 0x8, addend: 0x0, symName: __ZNKSt3__16vectorINS_4pairIiiEENS_9allocatorIS2_EEE8capacityB8ue170006Ev, symObjAddr: 0x4BD0, symBinAddr: 0x1000058F0, symSize: 0x30 }
  - { offsetInCU: 0x11105, offset: 0x11105, size: 0x8, addend: 0x0, symName: __ZNSt3__16vectorINS_4pairIiiEENS_9allocatorIS2_EEE22__base_destruct_at_endB8ue170006EPS2_, symObjAddr: 0x4C00, symBinAddr: 0x100005920, symSize: 0x80 }
  - { offsetInCU: 0x11148, offset: 0x11148, size: 0x8, addend: 0x0, symName: __ZNSt3__116allocator_traitsINS_9allocatorINS_4pairIiiEEEEE7destroyB8ue170006IS3_vEEvRS4_PT_, symObjAddr: 0x4C80, symBinAddr: 0x1000059A0, symSize: 0x30 }
  - { offsetInCU: 0x11185, offset: 0x11185, size: 0x8, addend: 0x0, symName: __ZNSt3__19allocatorINS_4pairIiiEEE7destroyB8ue170006EPS2_, symObjAddr: 0x4CC0, symBinAddr: 0x1000059E0, symSize: 0x10 }
  - { offsetInCU: 0x111B8, offset: 0x111B8, size: 0x8, addend: 0x0, symName: __ZNKSt3__16vectorINS_4pairIiiEENS_9allocatorIS2_EEE31__annotate_contiguous_containerB8ue170006EPKvS7_S7_S7_, symObjAddr: 0x4CD0, symBinAddr: 0x1000059F0, symSize: 0x20 }
  - { offsetInCU: 0x11209, offset: 0x11209, size: 0x8, addend: 0x0, symName: __ZNKSt3__16vectorINS_4pairIiiEENS_9allocatorIS2_EEE4dataB8ue170006Ev, symObjAddr: 0x4CF0, symBinAddr: 0x100005A10, symSize: 0x20 }
  - { offsetInCU: 0x1122E, offset: 0x1122E, size: 0x8, addend: 0x0, symName: __ZNSt3__19allocatorINS_4pairIiiEEE10deallocateB8ue170006EPS2_m, symObjAddr: 0x4D10, symBinAddr: 0x100005A30, symSize: 0x40 }
  - { offsetInCU: 0x1126F, offset: 0x1126F, size: 0x8, addend: 0x0, symName: __ZNSt3__117__compressed_pairIPNS_4pairIiiEENS_9allocatorIS2_EEE6secondB8ue170006Ev, symObjAddr: 0x4D50, symBinAddr: 0x100005A70, symSize: 0x20 }
  - { offsetInCU: 0x11294, offset: 0x11294, size: 0x8, addend: 0x0, symName: __ZNSt3__122__compressed_pair_elemINS_9allocatorINS_4pairIiiEEEELi1ELb1EE5__getB8ue170006Ev, symObjAddr: 0x4D70, symBinAddr: 0x100005A90, symSize: 0x10 }
  - { offsetInCU: 0x112B9, offset: 0x112B9, size: 0x8, addend: 0x0, symName: __ZNKSt3__16vectorINS_4pairIiiEENS_9allocatorIS2_EEE9__end_capB8ue170006Ev, symObjAddr: 0x4D80, symBinAddr: 0x100005AA0, symSize: 0x20 }
  - { offsetInCU: 0x112DE, offset: 0x112DE, size: 0x8, addend: 0x0, symName: __ZNKSt3__117__compressed_pairIPNS_4pairIiiEENS_9allocatorIS2_EEE5firstB8ue170006Ev, symObjAddr: 0x4DA0, symBinAddr: 0x100005AC0, symSize: 0x20 }
  - { offsetInCU: 0x11303, offset: 0x11303, size: 0x8, addend: 0x0, symName: __ZNKSt3__122__compressed_pair_elemIPNS_4pairIiiEELi0ELb0EE5__getB8ue170006Ev, symObjAddr: 0x4DC0, symBinAddr: 0x100005AE0, symSize: 0x10 }
  - { offsetInCU: 0x11328, offset: 0x11328, size: 0x8, addend: 0x0, symName: __ZNSt3__16vectorINS_4pairIiiEENS_9allocatorIS2_EEE9__end_capB8ue170006Ev, symObjAddr: 0x4DD0, symBinAddr: 0x100005AF0, symSize: 0x20 }
  - { offsetInCU: 0x1134D, offset: 0x1134D, size: 0x8, addend: 0x0, symName: __ZNSt3__16vectorINS_4pairIiiEENS_9allocatorIS2_EEE22__construct_one_at_endB8ue170006IJS2_EEEvDpOT_, symObjAddr: 0x4DF0, symBinAddr: 0x100005B10, symSize: 0x90 }
  - { offsetInCU: 0x1139A, offset: 0x1139A, size: 0x8, addend: 0x0, symName: __ZNSt3__16vectorINS_4pairIiiEENS_9allocatorIS2_EEE21__push_back_slow_pathIS2_EEvOT_, symObjAddr: 0x4E80, symBinAddr: 0x100005BA0, symSize: 0xD0 }
  - { offsetInCU: 0x113F7, offset: 0x113F7, size: 0x8, addend: 0x0, symName: __ZNSt3__117__compressed_pairIPNS_4pairIiiEENS_9allocatorIS2_EEE5firstB8ue170006Ev, symObjAddr: 0x4F50, symBinAddr: 0x100005C70, symSize: 0x20 }
  - { offsetInCU: 0x1141C, offset: 0x1141C, size: 0x8, addend: 0x0, symName: __ZNSt3__122__compressed_pair_elemIPNS_4pairIiiEELi0ELb0EE5__getB8ue170006Ev, symObjAddr: 0x4F70, symBinAddr: 0x100005C90, symSize: 0x10 }
  - { offsetInCU: 0x1145A, offset: 0x1145A, size: 0x8, addend: 0x0, symName: __ZNSt3__16vectorINS_4pairIiiEENS_9allocatorIS2_EEE21_ConstructTransactionC1B8ue170006ERS5_m, symObjAddr: 0x4F80, symBinAddr: 0x100005CA0, symSize: 0x30 }
  - { offsetInCU: 0x114A1, offset: 0x114A1, size: 0x8, addend: 0x0, symName: __ZNSt3__116allocator_traitsINS_9allocatorINS_4pairIiiEEEEE9constructB8ue170006IS3_JS3_EvEEvRS4_PT_DpOT0_, symObjAddr: 0x4FB0, symBinAddr: 0x100005CD0, symSize: 0x30 }
  - { offsetInCU: 0x114F8, offset: 0x114F8, size: 0x8, addend: 0x0, symName: __ZNSt3__16vectorINS_4pairIiiEENS_9allocatorIS2_EEE21_ConstructTransactionD1B8ue170006Ev, symObjAddr: 0x4FE0, symBinAddr: 0x100005D00, symSize: 0x20 }
  - { offsetInCU: 0x11521, offset: 0x11521, size: 0x8, addend: 0x0, symName: __ZNSt3__16vectorINS_4pairIiiEENS_9allocatorIS2_EEE21_ConstructTransactionC2B8ue170006ERS5_m, symObjAddr: 0x5000, symBinAddr: 0x100005D20, symSize: 0x40 }
  - { offsetInCU: 0x11568, offset: 0x11568, size: 0x8, addend: 0x0, symName: __ZNSt3__19allocatorINS_4pairIiiEEE9constructB8ue170006IS2_JS2_EEEvPT_DpOT0_, symObjAddr: 0x5040, symBinAddr: 0x100005D60, symSize: 0x20 }
  - { offsetInCU: 0x115BD, offset: 0x115BD, size: 0x8, addend: 0x0, symName: __ZNSt3__16vectorINS_4pairIiiEENS_9allocatorIS2_EEE21_ConstructTransactionD2B8ue170006Ev, symObjAddr: 0x5060, symBinAddr: 0x100005D80, symSize: 0x20 }
  - { offsetInCU: 0x115E5, offset: 0x115E5, size: 0x8, addend: 0x0, symName: __ZNKSt3__16vectorINS_4pairIiiEENS_9allocatorIS2_EEE11__recommendB8ue170006Em, symObjAddr: 0x5080, symBinAddr: 0x100005DA0, symSize: 0xA0 }
  - { offsetInCU: 0x11639, offset: 0x11639, size: 0x8, addend: 0x0, symName: __ZNSt3__114__split_bufferINS_4pairIiiEERNS_9allocatorIS2_EEEC1EmmS5_, symObjAddr: 0x5120, symBinAddr: 0x100005E40, symSize: 0x40 }
  - { offsetInCU: 0x1168E, offset: 0x1168E, size: 0x8, addend: 0x0, symName: __ZNSt3__114__split_bufferINS_4pairIiiEERNS_9allocatorIS2_EEED1Ev, symObjAddr: 0x5280, symBinAddr: 0x100005FA0, symSize: 0x20 }
  - { offsetInCU: 0x116B8, offset: 0x116B8, size: 0x8, addend: 0x0, symName: __ZNKSt3__16vectorINS_4pairIiiEENS_9allocatorIS2_EEE8max_sizeEv, symObjAddr: 0x52A0, symBinAddr: 0x100005FC0, symSize: 0x60 }
  - { offsetInCU: 0x116DF, offset: 0x116DF, size: 0x8, addend: 0x0, symName: __ZNKSt3__16vectorINS_4pairIiiEENS_9allocatorIS2_EEE20__throw_length_errorB8ue170006Ev, symObjAddr: 0x5300, symBinAddr: 0x100006020, symSize: 0x20 }
  - { offsetInCU: 0x1170E, offset: 0x1170E, size: 0x8, addend: 0x0, symName: __ZNSt3__116allocator_traitsINS_9allocatorINS_4pairIiiEEEEE8max_sizeB8ue170006IS4_vEEmRKS4_, symObjAddr: 0x5350, symBinAddr: 0x100006070, symSize: 0x20 }
  - { offsetInCU: 0x1173C, offset: 0x1173C, size: 0x8, addend: 0x0, symName: __ZNKSt3__16vectorINS_4pairIiiEENS_9allocatorIS2_EEE7__allocB8ue170006Ev, symObjAddr: 0x5370, symBinAddr: 0x100006090, symSize: 0x20 }
  - { offsetInCU: 0x11761, offset: 0x11761, size: 0x8, addend: 0x0, symName: __ZNKSt3__19allocatorINS_4pairIiiEEE8max_sizeB8ue170006Ev, symObjAddr: 0x5390, symBinAddr: 0x1000060B0, symSize: 0x20 }
  - { offsetInCU: 0x11786, offset: 0x11786, size: 0x8, addend: 0x0, symName: __ZNKSt3__117__compressed_pairIPNS_4pairIiiEENS_9allocatorIS2_EEE6secondB8ue170006Ev, symObjAddr: 0x53B0, symBinAddr: 0x1000060D0, symSize: 0x20 }
  - { offsetInCU: 0x117AB, offset: 0x117AB, size: 0x8, addend: 0x0, symName: __ZNKSt3__122__compressed_pair_elemINS_9allocatorINS_4pairIiiEEEELi1ELb1EE5__getB8ue170006Ev, symObjAddr: 0x53D0, symBinAddr: 0x1000060F0, symSize: 0x10 }
  - { offsetInCU: 0x117D0, offset: 0x117D0, size: 0x8, addend: 0x0, symName: __ZNSt3__114__split_bufferINS_4pairIiiEERNS_9allocatorIS2_EEEC2EmmS5_, symObjAddr: 0x5430, symBinAddr: 0x100006150, symSize: 0xD0 }
  - { offsetInCU: 0x11843, offset: 0x11843, size: 0x8, addend: 0x0, symName: __ZNSt3__117__compressed_pairIPNS_4pairIiiEERNS_9allocatorIS2_EEEC1B8ue170006IDnS6_EEOT_OT0_, symObjAddr: 0x5500, symBinAddr: 0x100006220, symSize: 0x30 }
  - { offsetInCU: 0x1189A, offset: 0x1189A, size: 0x8, addend: 0x0, symName: __ZNSt3__114__split_bufferINS_4pairIiiEERNS_9allocatorIS2_EEE7__allocB8ue170006Ev, symObjAddr: 0x5570, symBinAddr: 0x100006290, symSize: 0x20 }
  - { offsetInCU: 0x118BF, offset: 0x118BF, size: 0x8, addend: 0x0, symName: __ZNSt3__114__split_bufferINS_4pairIiiEERNS_9allocatorIS2_EEE9__end_capB8ue170006Ev, symObjAddr: 0x5590, symBinAddr: 0x1000062B0, symSize: 0x20 }
  - { offsetInCU: 0x118E4, offset: 0x118E4, size: 0x8, addend: 0x0, symName: __ZNSt3__117__compressed_pairIPNS_4pairIiiEERNS_9allocatorIS2_EEEC2B8ue170006IDnS6_EEOT_OT0_, symObjAddr: 0x55B0, symBinAddr: 0x1000062D0, symSize: 0x40 }
  - { offsetInCU: 0x1193B, offset: 0x1193B, size: 0x8, addend: 0x0, symName: __ZNSt3__122__compressed_pair_elemIRNS_9allocatorINS_4pairIiiEEEELi1ELb0EEC2B8ue170006IS5_vEEOT_, symObjAddr: 0x55F0, symBinAddr: 0x100006310, symSize: 0x20 }
  - { offsetInCU: 0x1197C, offset: 0x1197C, size: 0x8, addend: 0x0, symName: __ZNSt3__19allocatorINS_4pairIiiEEE8allocateB8ue170006Em, symObjAddr: 0x5610, symBinAddr: 0x100006330, symSize: 0x50 }
  - { offsetInCU: 0x119AF, offset: 0x119AF, size: 0x8, addend: 0x0, symName: __ZNSt3__117__compressed_pairIPNS_4pairIiiEERNS_9allocatorIS2_EEE6secondB8ue170006Ev, symObjAddr: 0x5660, symBinAddr: 0x100006380, symSize: 0x20 }
  - { offsetInCU: 0x119D4, offset: 0x119D4, size: 0x8, addend: 0x0, symName: __ZNSt3__122__compressed_pair_elemIRNS_9allocatorINS_4pairIiiEEEELi1ELb0EE5__getB8ue170006Ev, symObjAddr: 0x5680, symBinAddr: 0x1000063A0, symSize: 0x20 }
  - { offsetInCU: 0x119F9, offset: 0x119F9, size: 0x8, addend: 0x0, symName: __ZNSt3__117__compressed_pairIPNS_4pairIiiEERNS_9allocatorIS2_EEE5firstB8ue170006Ev, symObjAddr: 0x56A0, symBinAddr: 0x1000063C0, symSize: 0x20 }
  - { offsetInCU: 0x11A1E, offset: 0x11A1E, size: 0x8, addend: 0x0, symName: __ZNSt3__116reverse_iteratorIPNS_4pairIiiEEEC1B8ue170006ES3_, symObjAddr: 0x5840, symBinAddr: 0x100006560, symSize: 0x30 }
  - { offsetInCU: 0x11A55, offset: 0x11A55, size: 0x8, addend: 0x0, symName: __ZNKSt3__116reverse_iteratorIPNS_4pairIiiEEE4baseB8ue170006Ev, symObjAddr: 0x5870, symBinAddr: 0x100006590, symSize: 0x20 }
  - { offsetInCU: 0x11A7A, offset: 0x11A7A, size: 0x8, addend: 0x0, symName: __ZNKSt3__16vectorINS_4pairIiiEENS_9allocatorIS2_EEE14__annotate_newB8ue170006Em, symObjAddr: 0x58D0, symBinAddr: 0x1000065F0, symSize: 0xB0 }
  - { offsetInCU: 0x11AAE, offset: 0x11AAE, size: 0x8, addend: 0x0, symName: __ZNSt3__129_AllocatorDestroyRangeReverseINS_9allocatorINS_4pairIiiEEEENS_16reverse_iteratorIPS3_EEEC1B8ue170006ERS4_RS7_SA_, symObjAddr: 0x59E0, symBinAddr: 0x100006700, symSize: 0x40 }
  - { offsetInCU: 0x11B04, offset: 0x11B04, size: 0x8, addend: 0x0, symName: __ZNKSt3__116reverse_iteratorIPNS_4pairIiiEEEdeB8ue170006Ev, symObjAddr: 0x5A80, symBinAddr: 0x1000067A0, symSize: 0x30 }
  - { offsetInCU: 0x11B37, offset: 0x11B37, size: 0x8, addend: 0x0, symName: __ZNSt3__116reverse_iteratorIPNS_4pairIiiEEEppB8ue170006Ev, symObjAddr: 0x5AB0, symBinAddr: 0x1000067D0, symSize: 0x20 }
  - { offsetInCU: 0x11B5C, offset: 0x11B5C, size: 0x8, addend: 0x0, symName: __ZNSt3__128__exception_guard_exceptionsINS_29_AllocatorDestroyRangeReverseINS_9allocatorINS_4pairIiiEEEENS_16reverse_iteratorIPS4_EEEEE10__completeB8ue170006Ev, symObjAddr: 0x5AD0, symBinAddr: 0x1000067F0, symSize: 0x20 }
  - { offsetInCU: 0x11B81, offset: 0x11B81, size: 0x8, addend: 0x0, symName: __ZNSt3__128__exception_guard_exceptionsINS_29_AllocatorDestroyRangeReverseINS_9allocatorINS_4pairIiiEEEENS_16reverse_iteratorIPS4_EEEEED1B8ue170006Ev, symObjAddr: 0x5AF0, symBinAddr: 0x100006810, symSize: 0x20 }
  - { offsetInCU: 0x11BAA, offset: 0x11BAA, size: 0x8, addend: 0x0, symName: __ZNSt3__128__exception_guard_exceptionsINS_29_AllocatorDestroyRangeReverseINS_9allocatorINS_4pairIiiEEEENS_16reverse_iteratorIPS4_EEEEEC1B8ue170006ES9_, symObjAddr: 0x5B10, symBinAddr: 0x100006830, symSize: 0x40 }
  - { offsetInCU: 0x11BE1, offset: 0x11BE1, size: 0x8, addend: 0x0, symName: __ZNSt3__128__exception_guard_exceptionsINS_29_AllocatorDestroyRangeReverseINS_9allocatorINS_4pairIiiEEEENS_16reverse_iteratorIPS4_EEEEEC2B8ue170006ES9_, symObjAddr: 0x5B50, symBinAddr: 0x100006870, symSize: 0x30 }
  - { offsetInCU: 0x11C18, offset: 0x11C18, size: 0x8, addend: 0x0, symName: __ZNSt3__129_AllocatorDestroyRangeReverseINS_9allocatorINS_4pairIiiEEEENS_16reverse_iteratorIPS3_EEEC2B8ue170006ERS4_RS7_SA_, symObjAddr: 0x5B80, symBinAddr: 0x1000068A0, symSize: 0x40 }
  - { offsetInCU: 0x11C73, offset: 0x11C73, size: 0x8, addend: 0x0, symName: __ZNSt3__119__to_address_helperINS_16reverse_iteratorIPNS_4pairIiiEEEEvE6__callB8ue170006ERKS5_, symObjAddr: 0x5BC0, symBinAddr: 0x1000068E0, symSize: 0x40 }
  - { offsetInCU: 0x11C96, offset: 0x11C96, size: 0x8, addend: 0x0, symName: __ZNKSt3__116reverse_iteratorIPNS_4pairIiiEEEptB8ue170006Ev, symObjAddr: 0x5C00, symBinAddr: 0x100006920, symSize: 0x20 }
  - { offsetInCU: 0x11CBB, offset: 0x11CBB, size: 0x8, addend: 0x0, symName: __ZNSt3__128__exception_guard_exceptionsINS_29_AllocatorDestroyRangeReverseINS_9allocatorINS_4pairIiiEEEENS_16reverse_iteratorIPS4_EEEEED2B8ue170006Ev, symObjAddr: 0x5C20, symBinAddr: 0x100006940, symSize: 0x40 }
  - { offsetInCU: 0x11CE4, offset: 0x11CE4, size: 0x8, addend: 0x0, symName: __ZNKSt3__129_AllocatorDestroyRangeReverseINS_9allocatorINS_4pairIiiEEEENS_16reverse_iteratorIPS3_EEEclB8ue170006Ev, symObjAddr: 0x5C60, symBinAddr: 0x100006980, symSize: 0xF0 }
  - { offsetInCU: 0x11D0A, offset: 0x11D0A, size: 0x8, addend: 0x0, symName: __ZNSt3__116reverse_iteratorINS0_IPNS_4pairIiiEEEEEC1B8ue170006ES4_, symObjAddr: 0x5DC0, symBinAddr: 0x100006AE0, symSize: 0x30 }
  - { offsetInCU: 0x11D41, offset: 0x11D41, size: 0x8, addend: 0x0, symName: __ZNSt3__116reverse_iteratorINS0_IPNS_4pairIiiEEEEEppB8ue170006Ev, symObjAddr: 0x5E60, symBinAddr: 0x100006B80, symSize: 0x30 }
  - { offsetInCU: 0x11D66, offset: 0x11D66, size: 0x8, addend: 0x0, symName: __ZNKSt3__116reverse_iteratorINS0_IPNS_4pairIiiEEEEE4baseB8ue170006Ev, symObjAddr: 0x5E90, symBinAddr: 0x100006BB0, symSize: 0x20 }
  - { offsetInCU: 0x11D90, offset: 0x11D90, size: 0x8, addend: 0x0, symName: __ZNSt3__119__to_address_helperINS_16reverse_iteratorINS1_IPNS_4pairIiiEEEEEEvE6__callB8ue170006ERKS6_, symObjAddr: 0x5EB0, symBinAddr: 0x100006BD0, symSize: 0x40 }
  - { offsetInCU: 0x11DB3, offset: 0x11DB3, size: 0x8, addend: 0x0, symName: __ZNKSt3__116reverse_iteratorINS0_IPNS_4pairIiiEEEEEptB8ue170006Ev, symObjAddr: 0x5EF0, symBinAddr: 0x100006C10, symSize: 0x20 }
  - { offsetInCU: 0x11DD8, offset: 0x11DD8, size: 0x8, addend: 0x0, symName: __ZNKSt3__116reverse_iteratorINS0_IPNS_4pairIiiEEEEEdeB8ue170006Ev, symObjAddr: 0x5F10, symBinAddr: 0x100006C30, symSize: 0x40 }
  - { offsetInCU: 0x11E0B, offset: 0x11E0B, size: 0x8, addend: 0x0, symName: __ZNSt3__116reverse_iteratorIPNS_4pairIiiEEEmmB8ue170006Ev, symObjAddr: 0x5F50, symBinAddr: 0x100006C70, symSize: 0x20 }
  - { offsetInCU: 0x11E30, offset: 0x11E30, size: 0x8, addend: 0x0, symName: __ZNSt3__116reverse_iteratorINS0_IPNS_4pairIiiEEEEEC2B8ue170006ES4_, symObjAddr: 0x5F70, symBinAddr: 0x100006C90, symSize: 0x40 }
  - { offsetInCU: 0x11E67, offset: 0x11E67, size: 0x8, addend: 0x0, symName: __ZNSt3__116reverse_iteratorIPNS_4pairIiiEEEC2B8ue170006ES3_, symObjAddr: 0x5FB0, symBinAddr: 0x100006CD0, symSize: 0x30 }
  - { offsetInCU: 0x11E9E, offset: 0x11E9E, size: 0x8, addend: 0x0, symName: __ZNSt3__114__split_bufferINS_4pairIiiEERNS_9allocatorIS2_EEED2Ev, symObjAddr: 0x5FE0, symBinAddr: 0x100006D00, symSize: 0x70 }
  - { offsetInCU: 0x11EC9, offset: 0x11EC9, size: 0x8, addend: 0x0, symName: __ZNSt3__114__split_bufferINS_4pairIiiEERNS_9allocatorIS2_EEE5clearB8ue170006Ev, symObjAddr: 0x6050, symBinAddr: 0x100006D70, symSize: 0x20 }
  - { offsetInCU: 0x11EEE, offset: 0x11EEE, size: 0x8, addend: 0x0, symName: __ZNKSt3__114__split_bufferINS_4pairIiiEERNS_9allocatorIS2_EEE8capacityB8ue170006Ev, symObjAddr: 0x6070, symBinAddr: 0x100006D90, symSize: 0x30 }
  - { offsetInCU: 0x11F13, offset: 0x11F13, size: 0x8, addend: 0x0, symName: __ZNSt3__114__split_bufferINS_4pairIiiEERNS_9allocatorIS2_EEE17__destruct_at_endB8ue170006EPS2_, symObjAddr: 0x60A0, symBinAddr: 0x100006DC0, symSize: 0x30 }
  - { offsetInCU: 0x11F45, offset: 0x11F45, size: 0x8, addend: 0x0, symName: __ZNSt3__114__split_bufferINS_4pairIiiEERNS_9allocatorIS2_EEE17__destruct_at_endB8ue170006EPS2_NS_17integral_constantIbLb0EEE, symObjAddr: 0x60D0, symBinAddr: 0x100006DF0, symSize: 0x80 }
  - { offsetInCU: 0x11F84, offset: 0x11F84, size: 0x8, addend: 0x0, symName: __ZNKSt3__114__split_bufferINS_4pairIiiEERNS_9allocatorIS2_EEE9__end_capB8ue170006Ev, symObjAddr: 0x6150, symBinAddr: 0x100006E70, symSize: 0x20 }
  - { offsetInCU: 0x11FA9, offset: 0x11FA9, size: 0x8, addend: 0x0, symName: __ZNKSt3__117__compressed_pairIPNS_4pairIiiEERNS_9allocatorIS2_EEE5firstB8ue170006Ev, symObjAddr: 0x6170, symBinAddr: 0x100006E90, symSize: 0x20 }
  - { offsetInCU: 0x11FCE, offset: 0x11FCE, size: 0x8, addend: 0x0, symName: __ZNSt3__16vectorINS0_IcNS_9allocatorIcEEEENS1_IS3_EEEC2ERKS5_, symObjAddr: 0x6190, symBinAddr: 0x100006EB0, symSize: 0xA0 }
  - { offsetInCU: 0x12008, offset: 0x12008, size: 0x8, addend: 0x0, symName: __ZNSt3__116allocator_traitsINS_9allocatorINS_6vectorIcNS1_IcEEEEEEE37select_on_container_copy_constructionB8ue170006IS5_vvEES5_RKS5_, symObjAddr: 0x6230, symBinAddr: 0x100006F50, symSize: 0x10 }
  - { offsetInCU: 0x1203C, offset: 0x1203C, size: 0x8, addend: 0x0, symName: __ZNSt3__117__compressed_pairIPNS_6vectorIcNS_9allocatorIcEEEENS2_IS4_EEEC1B8ue170006IDnS6_EEOT_OT0_, symObjAddr: 0x6240, symBinAddr: 0x100006F60, symSize: 0x30 }
  - { offsetInCU: 0x12093, offset: 0x12093, size: 0x8, addend: 0x0, symName: __ZNSt3__16vectorINS0_IcNS_9allocatorIcEEEENS1_IS3_EEE16__init_with_sizeB8ue170006IPS3_S7_EEvT_T0_m, symObjAddr: 0x6270, symBinAddr: 0x100006F90, symSize: 0xB0 }
  - { offsetInCU: 0x12106, offset: 0x12106, size: 0x8, addend: 0x0, symName: __ZNSt3__117__compressed_pairIPNS_6vectorIcNS_9allocatorIcEEEENS2_IS4_EEEC2B8ue170006IDnS6_EEOT_OT0_, symObjAddr: 0x6320, symBinAddr: 0x100007040, symSize: 0x40 }
  - { offsetInCU: 0x1215D, offset: 0x1215D, size: 0x8, addend: 0x0, symName: __ZNSt3__122__compressed_pair_elemINS_9allocatorINS_6vectorIcNS1_IcEEEEEELi1ELb1EEC2B8ue170006IS5_vEEOT_, symObjAddr: 0x6360, symBinAddr: 0x100007080, symSize: 0x10 }
  - { offsetInCU: 0x1219D, offset: 0x1219D, size: 0x8, addend: 0x0, symName: __ZNSt3__16vectorINS0_IcNS_9allocatorIcEEEENS1_IS3_EEE18__construct_at_endIPS3_S7_EEvT_T0_m, symObjAddr: 0x6370, symBinAddr: 0x100007090, symSize: 0x90 }
  - { offsetInCU: 0x12230, offset: 0x12230, size: 0x8, addend: 0x0, symName: __ZNSt3__14pairIPNS_6vectorIcNS_9allocatorIcEEEES5_EC1B8ue170006IS5_S5_LPv0EEEOT_OT0_, symObjAddr: 0x6660, symBinAddr: 0x100007380, symSize: 0x30 }
  - { offsetInCU: 0x1228D, offset: 0x1228D, size: 0x8, addend: 0x0, symName: __ZNSt3__14pairIPNS_6vectorIcNS_9allocatorIcEEEES5_EC2B8ue170006IS5_S5_LPv0EEEOT_OT0_, symObjAddr: 0x6690, symBinAddr: 0x1000073B0, symSize: 0x30 }
  - { offsetInCU: 0x122EA, offset: 0x122EA, size: 0x8, addend: 0x0, symName: __ZNSt3__129_AllocatorDestroyRangeReverseINS_9allocatorINS_6vectorIcNS1_IcEEEEEEPS4_EC1B8ue170006ERS5_RS6_S9_, symObjAddr: 0x6720, symBinAddr: 0x100007440, symSize: 0x40 }
  - { offsetInCU: 0x12340, offset: 0x12340, size: 0x8, addend: 0x0, symName: __ZNSt3__116allocator_traitsINS_9allocatorINS_6vectorIcNS1_IcEEEEEEE9constructB8ue170006IS4_JRS4_EvEEvRS5_PT_DpOT0_, symObjAddr: 0x6760, symBinAddr: 0x100007480, symSize: 0x30 }
  - { offsetInCU: 0x12397, offset: 0x12397, size: 0x8, addend: 0x0, symName: __ZNSt3__128__exception_guard_exceptionsINS_29_AllocatorDestroyRangeReverseINS_9allocatorINS_6vectorIcNS2_IcEEEEEEPS5_EEE10__completeB8ue170006Ev, symObjAddr: 0x6790, symBinAddr: 0x1000074B0, symSize: 0x20 }
  - { offsetInCU: 0x123BC, offset: 0x123BC, size: 0x8, addend: 0x0, symName: __ZNSt3__128__exception_guard_exceptionsINS_29_AllocatorDestroyRangeReverseINS_9allocatorINS_6vectorIcNS2_IcEEEEEEPS5_EEED1B8ue170006Ev, symObjAddr: 0x67B0, symBinAddr: 0x1000074D0, symSize: 0x20 }
  - { offsetInCU: 0x123E5, offset: 0x123E5, size: 0x8, addend: 0x0, symName: __ZNSt3__128__exception_guard_exceptionsINS_29_AllocatorDestroyRangeReverseINS_9allocatorINS_6vectorIcNS2_IcEEEEEEPS5_EEEC1B8ue170006ES8_, symObjAddr: 0x67D0, symBinAddr: 0x1000074F0, symSize: 0x40 }
  - { offsetInCU: 0x1241C, offset: 0x1241C, size: 0x8, addend: 0x0, symName: __ZNSt3__128__exception_guard_exceptionsINS_29_AllocatorDestroyRangeReverseINS_9allocatorINS_6vectorIcNS2_IcEEEEEEPS5_EEEC2B8ue170006ES8_, symObjAddr: 0x6810, symBinAddr: 0x100007530, symSize: 0x30 }
  - { offsetInCU: 0x12453, offset: 0x12453, size: 0x8, addend: 0x0, symName: __ZNSt3__129_AllocatorDestroyRangeReverseINS_9allocatorINS_6vectorIcNS1_IcEEEEEEPS4_EC2B8ue170006ERS5_RS6_S9_, symObjAddr: 0x6840, symBinAddr: 0x100007560, symSize: 0x40 }
  - { offsetInCU: 0x124A9, offset: 0x124A9, size: 0x8, addend: 0x0, symName: __ZNSt3__19allocatorINS_6vectorIcNS0_IcEEEEE9constructB8ue170006IS3_JRS3_EEEvPT_DpOT0_, symObjAddr: 0x6880, symBinAddr: 0x1000075A0, symSize: 0x30 }
  - { offsetInCU: 0x124FE, offset: 0x124FE, size: 0x8, addend: 0x0, symName: __ZNSt3__128__exception_guard_exceptionsINS_29_AllocatorDestroyRangeReverseINS_9allocatorINS_6vectorIcNS2_IcEEEEEEPS5_EEED2B8ue170006Ev, symObjAddr: 0x68B0, symBinAddr: 0x1000075D0, symSize: 0x40 }
  - { offsetInCU: 0x12527, offset: 0x12527, size: 0x8, addend: 0x0, symName: __ZNKSt3__129_AllocatorDestroyRangeReverseINS_9allocatorINS_6vectorIcNS1_IcEEEEEEPS4_EclB8ue170006Ev, symObjAddr: 0x68F0, symBinAddr: 0x100007610, symSize: 0x60 }
  - { offsetInCU: 0x1254C, offset: 0x1254C, size: 0x8, addend: 0x0, symName: __ZNSt3__116reverse_iteratorIPNS_6vectorIcNS_9allocatorIcEEEEEC1B8ue170006ES5_, symObjAddr: 0x69C0, symBinAddr: 0x1000076E0, symSize: 0x30 }
  - { offsetInCU: 0x12583, offset: 0x12583, size: 0x8, addend: 0x0, symName: __ZNSt3__116reverse_iteratorIPNS_6vectorIcNS_9allocatorIcEEEEEppB8ue170006Ev, symObjAddr: 0x6A50, symBinAddr: 0x100007770, symSize: 0x20 }
  - { offsetInCU: 0x125A8, offset: 0x125A8, size: 0x8, addend: 0x0, symName: __ZNKSt3__116reverse_iteratorIPNS_6vectorIcNS_9allocatorIcEEEEE4baseB8ue170006Ev, symObjAddr: 0x6A70, symBinAddr: 0x100007790, symSize: 0x20 }
  - { offsetInCU: 0x125D2, offset: 0x125D2, size: 0x8, addend: 0x0, symName: __ZNSt3__119__to_address_helperINS_16reverse_iteratorIPNS_6vectorIcNS_9allocatorIcEEEEEEvE6__callB8ue170006ERKS7_, symObjAddr: 0x6A90, symBinAddr: 0x1000077B0, symSize: 0x40 }
  - { offsetInCU: 0x125F5, offset: 0x125F5, size: 0x8, addend: 0x0, symName: __ZNKSt3__116reverse_iteratorIPNS_6vectorIcNS_9allocatorIcEEEEEptB8ue170006Ev, symObjAddr: 0x6AD0, symBinAddr: 0x1000077F0, symSize: 0x20 }
  - { offsetInCU: 0x1261A, offset: 0x1261A, size: 0x8, addend: 0x0, symName: __ZNKSt3__116reverse_iteratorIPNS_6vectorIcNS_9allocatorIcEEEEEdeB8ue170006Ev, symObjAddr: 0x6AF0, symBinAddr: 0x100007810, symSize: 0x30 }
  - { offsetInCU: 0x1264D, offset: 0x1264D, size: 0x8, addend: 0x0, symName: __ZNSt3__116reverse_iteratorIPNS_6vectorIcNS_9allocatorIcEEEEEC2B8ue170006ES5_, symObjAddr: 0x6B20, symBinAddr: 0x100007840, symSize: 0x30 }
  - { offsetInCU: 0x12684, offset: 0x12684, size: 0x8, addend: 0x0, symName: __ZNSt3__118__unwrap_iter_implIPNS_6vectorIcNS_9allocatorIcEEEELb1EE8__unwrapB8ue170006ES5_, symObjAddr: 0x6B50, symBinAddr: 0x100007870, symSize: 0x20 }
  - { offsetInCU: 0x126A7, offset: 0x126A7, size: 0x8, addend: 0x0, symName: __ZNSt3__118__unwrap_iter_implIPNS_6vectorIcNS_9allocatorIcEEEELb1EE8__rewrapB8ue170006ES5_S5_, symObjAddr: 0x6B70, symBinAddr: 0x100007890, symSize: 0x60 }
  - { offsetInCU: 0x126D8, offset: 0x126D8, size: 0x8, addend: 0x0, symName: __ZNSt3__16vectorINS0_IcNS_9allocatorIcEEEENS1_IS3_EEE19__copy_assign_allocB8ue170006ERKS5_, symObjAddr: 0x6BD0, symBinAddr: 0x1000078F0, symSize: 0x30 }
  - { offsetInCU: 0x1270B, offset: 0x1270B, size: 0x8, addend: 0x0, symName: __ZNSt3__16vectorINS0_IcNS_9allocatorIcEEEENS1_IS3_EEE6assignIPS3_Li0EEEvT_S8_, symObjAddr: 0x6C00, symBinAddr: 0x100007920, symSize: 0x60 }
  - { offsetInCU: 0x1275F, offset: 0x1275F, size: 0x8, addend: 0x0, symName: __ZNSt3__16vectorINS0_IcNS_9allocatorIcEEEENS1_IS3_EEE19__copy_assign_allocB8ue170006ERKS5_NS_17integral_constantIbLb0EEE, symObjAddr: 0x6C60, symBinAddr: 0x100007980, symSize: 0x10 }
  - { offsetInCU: 0x12799, offset: 0x12799, size: 0x8, addend: 0x0, symName: __ZNSt3__16vectorINS0_IcNS_9allocatorIcEEEENS1_IS3_EEE18__assign_with_sizeB8ue170006IPS3_S7_EEvT_T0_l, symObjAddr: 0x6C70, symBinAddr: 0x100007990, symSize: 0x160 }
  - { offsetInCU: 0x1284A, offset: 0x1284A, size: 0x8, addend: 0x0, symName: __ZNSt3__16vectorINS0_IcNS_9allocatorIcEEEENS1_IS3_EEE17__destruct_at_endB8ue170006EPS3_, symObjAddr: 0x6EB0, symBinAddr: 0x100007BD0, symSize: 0x50 }
  - { offsetInCU: 0x1288C, offset: 0x1288C, size: 0x8, addend: 0x0, symName: __ZNSt3__16vectorINS0_IcNS_9allocatorIcEEEENS1_IS3_EEE13__vdeallocateEv, symObjAddr: 0x6F00, symBinAddr: 0x100007C20, symSize: 0x90 }
  - { offsetInCU: 0x128B2, offset: 0x128B2, size: 0x8, addend: 0x0, symName: __ZNKSt3__16vectorINS0_IcNS_9allocatorIcEEEENS1_IS3_EEE11__recommendB8ue170006Em, symObjAddr: 0x6F90, symBinAddr: 0x100007CB0, symSize: 0xA0 }
  - { offsetInCU: 0x12910, offset: 0x12910, size: 0x8, addend: 0x0, symName: __ZNKSt3__111__copy_loopINS_17_ClassicAlgPolicyEEclB8ue170006IPNS_6vectorIcNS_9allocatorIcEEEES8_S8_EENS_4pairIT_T1_EESA_T0_SB_, symObjAddr: 0x7180, symBinAddr: 0x100007EA0, symSize: 0x80 }
  - { offsetInCU: 0x12979, offset: 0x12979, size: 0x8, addend: 0x0, symName: __ZNSt3__16vectorIcNS_9allocatorIcEEEaSB8ue170006ERKS3_, symObjAddr: 0x7230, symBinAddr: 0x100007F50, symSize: 0x60 }
  - { offsetInCU: 0x129AF, offset: 0x129AF, size: 0x8, addend: 0x0, symName: __ZNSt3__16vectorIcNS_9allocatorIcEEE19__copy_assign_allocB8ue170006ERKS3_, symObjAddr: 0x7290, symBinAddr: 0x100007FB0, symSize: 0x30 }
  - { offsetInCU: 0x129E2, offset: 0x129E2, size: 0x8, addend: 0x0, symName: __ZNSt3__16vectorIcNS_9allocatorIcEEE6assignIPcLi0EEEvT_S6_, symObjAddr: 0x72C0, symBinAddr: 0x100007FE0, symSize: 0x60 }
  - { offsetInCU: 0x12A36, offset: 0x12A36, size: 0x8, addend: 0x0, symName: __ZNSt3__16vectorIcNS_9allocatorIcEEE19__copy_assign_allocB8ue170006ERKS3_NS_17integral_constantIbLb0EEE, symObjAddr: 0x7320, symBinAddr: 0x100008040, symSize: 0x10 }
  - { offsetInCU: 0x12A70, offset: 0x12A70, size: 0x8, addend: 0x0, symName: __ZNSt3__16vectorIcNS_9allocatorIcEEE18__assign_with_sizeB8ue170006IPcS5_EEvT_T0_l, symObjAddr: 0x7330, symBinAddr: 0x100008050, symSize: 0x160 }
  - { offsetInCU: 0x12B21, offset: 0x12B21, size: 0x8, addend: 0x0, symName: __ZNSt3__16vectorIcNS_9allocatorIcEEE17__destruct_at_endB8ue170006EPc, symObjAddr: 0x74F0, symBinAddr: 0x100008210, symSize: 0x50 }
  - { offsetInCU: 0x12B63, offset: 0x12B63, size: 0x8, addend: 0x0, symName: __ZNSt3__16vectorIcNS_9allocatorIcEEE13__vdeallocateEv, symObjAddr: 0x7540, symBinAddr: 0x100008260, symSize: 0x90 }
  - { offsetInCU: 0x12B89, offset: 0x12B89, size: 0x8, addend: 0x0, symName: __ZNKSt3__16vectorIcNS_9allocatorIcEEE11__recommendB8ue170006Em, symObjAddr: 0x75D0, symBinAddr: 0x1000082F0, symSize: 0xA0 }
  - { offsetInCU: 0x12BDD, offset: 0x12BDD, size: 0x8, addend: 0x0, symName: __ZNKSt3__16vectorIcNS_9allocatorIcEEE17__annotate_shrinkB8ue170006Em, symObjAddr: 0x76C0, symBinAddr: 0x1000083E0, symSize: 0x90 }
  - { offsetInCU: 0x12C11, offset: 0x12C11, size: 0x8, addend: 0x0, symName: __ZNSt3__16vectorIcNS_9allocatorIcEEE5clearB8ue170006Ev, symObjAddr: 0x7750, symBinAddr: 0x100008470, symSize: 0x40 }
  - { offsetInCU: 0x12C45, offset: 0x12C45, size: 0x8, addend: 0x0, symName: __ZNKSt3__16vectorINS0_IcNS_9allocatorIcEEEENS1_IS3_EEE17__annotate_shrinkB8ue170006Em, symObjAddr: 0x77B0, symBinAddr: 0x1000084D0, symSize: 0xA0 }
  - { offsetInCU: 0x12C79, offset: 0x12C79, size: 0x8, addend: 0x0, symName: __ZNSt3__16vectorINS0_IcNS_9allocatorIcEEEENS1_IS3_EEE5clearB8ue170006Ev, symObjAddr: 0x7850, symBinAddr: 0x100008570, symSize: 0x40 }
...
